	.file	"collision_math.adb"
	.text
.Ltext0:
	.file 0 "/workspaces/src/obj/development/gnatprove/data_representation" "/workspaces/src/src/collision_math.adb"
	.section	.text.collision_math__will_collide_vec__B8s___finalizer.2,"ax",@progbits
	.align 2
	.type	collision_math__will_collide_vec__B8s___finalizer.2, @function
collision_math__will_collide_vec__B8s___finalizer.2:
.LFB3:
	.cfi_startproc
	pushq	%rbp
	.cfi_def_cfa_offset 16
	.cfi_offset 6, -16
	pushq	%rbx
	.cfi_def_cfa_offset 24
	.cfi_offset 3, -24
	subq	$8, %rsp
	.cfi_def_cfa_offset 32
	movq	%r10, %rbx
	call	*system__soft_links__abort_defer(%rip)
	movq	ada__numerics__big_numbers__big_reals__big_realFD@GOTPCREL(%rip), %rbp
	leaq	360(%rbx), %rdi
	movq	%rbp, %rsi
	call	system__finalization_primitives__finalize_object@PLT
	leaq	336(%rbx), %rdi
	movq	%rbp, %rsi
	call	system__finalization_primitives__finalize_object@PLT
	leaq	312(%rbx), %rdi
	movq	%rbp, %rsi
	call	system__finalization_primitives__finalize_object@PLT
	leaq	288(%rbx), %rdi
	movq	%rbp, %rsi
	call	system__finalization_primitives__finalize_object@PLT
	leaq	264(%rbx), %rdi
	movq	%rbp, %rsi
	call	system__finalization_primitives__finalize_object@PLT
	leaq	240(%rbx), %rdi
	movq	%rbp, %rsi
	call	system__finalization_primitives__finalize_object@PLT
	leaq	216(%rbx), %rdi
	movq	%rbp, %rsi
	call	system__finalization_primitives__finalize_object@PLT
	leaq	192(%rbx), %rdi
	movq	%rbp, %rsi
	call	system__finalization_primitives__finalize_object@PLT
	leaq	168(%rbx), %rdi
	movq	%rbp, %rsi
	call	system__finalization_primitives__finalize_object@PLT
	leaq	144(%rbx), %rdi
	movq	%rbp, %rsi
	call	system__finalization_primitives__finalize_object@PLT
	leaq	120(%rbx), %rdi
	movq	%rbp, %rsi
	call	system__finalization_primitives__finalize_object@PLT
	leaq	96(%rbx), %rdi
	movq	ada__numerics__big_numbers__big_integers__big_integerFD@GOTPCREL(%rip), %rsi
	call	system__finalization_primitives__finalize_object@PLT
	leaq	72(%rbx), %rdi
	movq	%rbp, %rsi
	call	system__finalization_primitives__finalize_object@PLT
	leaq	48(%rbx), %rdi
	movq	%rbp, %rsi
	call	system__finalization_primitives__finalize_object@PLT
	leaq	24(%rbx), %rdi
	movq	ada__numerics__big_numbers__big_integers__big_integerFD@GOTPCREL(%rip), %rsi
	call	system__finalization_primitives__finalize_object@PLT
	movq	%rbp, %rsi
	movq	%rbx, %rdi
	call	system__finalization_primitives__finalize_object@PLT
	call	*system__soft_links__abort_undefer(%rip)
	addq	$8, %rsp
	.cfi_def_cfa_offset 24
	popq	%rbx
	.cfi_def_cfa_offset 16
	popq	%rbp
	.cfi_def_cfa_offset 8
	ret
	.cfi_endproc
.LFE3:
	.size	collision_math__will_collide_vec__B8s___finalizer.2, .-collision_math__will_collide_vec__B8s___finalizer.2
	.section	.rodata
.LC1:
	.ascii	"a-nbnbre.ads"
	.zero	1
	.section	.text.ada__numerics__big_numbers__big_reals__to_big_real__B38s___finalizer.0,"ax",@progbits
	.align 2
	.type	ada__numerics__big_numbers__big_reals__to_big_real__B38s___finalizer.0, @function
ada__numerics__big_numbers__big_reals__to_big_real__B38s___finalizer.0:
.LFB14:
	.cfi_startproc
	.cfi_personality 0x9b,DW.ref.__gnat_personality_v0
	.cfi_lsda 0x1b,.LLSDA14
	pushq	%r14
	.cfi_def_cfa_offset 16
	.cfi_offset 14, -16
	pushq	%rbx
	.cfi_def_cfa_offset 24
	.cfi_offset 3, -24
.LEHB0:
	subq	$8, %rsp
	.cfi_def_cfa_offset 32
	movq	%r10, %rbx
	call	ada__exceptions__triggered_by_abort@PLT
	movl	%eax, %r14d
	call	*system__soft_links__abort_defer(%rip)
.LEHE0:
	movq	ada__numerics__big_numbers__big_integers__big_integerFD@GOTPCREL(%rip), %rsi
	movq	%rbx, %rdi
.LEHB1:
	call	system__finalization_primitives__finalize_object@PLT
.LEHE1:
	movl	$0, %ebx
.L7:
.LEHB2:
	call	*system__soft_links__abort_undefer(%rip)
	movl	%r14d, %eax
	xorl	$1, %eax
	testb	%al, %bl
	jne	.L10
	addq	$8, %rsp
	.cfi_remember_state
	.cfi_def_cfa_offset 24
	popq	%rbx
	.cfi_def_cfa_offset 16
	popq	%r14
	.cfi_def_cfa_offset 8
	ret
.L10:
	.cfi_restore_state
	movl	$62, %esi
	leaq	.LC1(%rip), %rdi
	call	__gnat_rcheck_PE_Finalize_Raised_Exception@PLT
.L8:
	movq	%rax, %rdi
	cmpq	$1, %rdx
	je	.L6
	call	_Unwind_Resume@PLT
.L6:
	movq	%rax, %rbx
	movq	%rax, %rdi
	call	__gnat_begin_handler_v1@PLT
	movq	%rax, %rsi
	movl	$0, %edx
	movq	%rbx, %rdi
	call	__gnat_end_handler_v1@PLT
.LEHE2:
	movl	$1, %ebx
	jmp	.L7
	.cfi_endproc
.LFE14:
	.section	.gcc_except_table.ada__numerics__big_numbers__big_reals__to_big_real__B38s___finalizer.0,"a",@progbits
	.align 4
.LLSDA14:
	.byte	0xff
	.byte	0x9b
	.uleb128 .LLSDATT14-.LLSDATTD14
.LLSDATTD14:
	.byte	0x1
	.uleb128 .LLSDACSE14-.LLSDACSB14
.LLSDACSB14:
	.uleb128 .LEHB0-.LFB14
	.uleb128 .LEHE0-.LEHB0
	.uleb128 0
	.uleb128 0
	.uleb128 .LEHB1-.LFB14
	.uleb128 .LEHE1-.LEHB1
	.uleb128 .L8-.LFB14
	.uleb128 0x1
	.uleb128 .LEHB2-.LFB14
	.uleb128 .LEHE2-.LEHB2
	.uleb128 0
	.uleb128 0
.LLSDACSE14:
	.byte	0x1
	.byte	0
	.align 4
	.long	DW.ref.__gnat_others_value-.
.LLSDATT14:
	.section	.text.ada__numerics__big_numbers__big_reals__to_big_real__B38s___finalizer.0
	.size	ada__numerics__big_numbers__big_reals__to_big_real__B38s___finalizer.0, .-ada__numerics__big_numbers__big_reals__to_big_real__B38s___finalizer.0
	.section	.rodata
.LC2:
	.ascii	"vector.ads"
	.zero	1
	.section	.text.vector__dot__B108s___finalizer.1,"ax",@progbits
	.align 2
	.type	vector__dot__B108s___finalizer.1, @function
vector__dot__B108s___finalizer.1:
.LFB17:
	.cfi_startproc
	.cfi_personality 0x9b,DW.ref.__gnat_personality_v0
	.cfi_lsda 0x1b,.LLSDA17
	pushq	%r14
	.cfi_def_cfa_offset 16
	.cfi_offset 14, -16
	pushq	%rbx
	.cfi_def_cfa_offset 24
	.cfi_offset 3, -24
.LEHB3:
	subq	$8, %rsp
	.cfi_def_cfa_offset 32
	movq	%r10, %rbx
	call	ada__exceptions__triggered_by_abort@PLT
	movl	%eax, %r14d
	call	*system__soft_links__abort_defer(%rip)
.LEHE3:
	movq	%rbx, %rdi
.LEHB4:
	call	system__finalization_primitives__finalize_master@PLT
.LEHE4:
	movl	$0, %ebx
.L15:
.LEHB5:
	call	*system__soft_links__abort_undefer(%rip)
	movl	%r14d, %eax
	xorl	$1, %eax
	testb	%al, %bl
	jne	.L18
	addq	$8, %rsp
	.cfi_remember_state
	.cfi_def_cfa_offset 24
	popq	%rbx
	.cfi_def_cfa_offset 16
	popq	%r14
	.cfi_def_cfa_offset 8
	ret
.L18:
	.cfi_restore_state
	movl	$22, %esi
	leaq	.LC2(%rip), %rdi
	call	__gnat_rcheck_PE_Finalize_Raised_Exception@PLT
.L16:
	movq	%rax, %rdi
	cmpq	$1, %rdx
	je	.L14
	call	_Unwind_Resume@PLT
.L14:
	movq	%rax, %rbx
	movq	%rax, %rdi
	call	__gnat_begin_handler_v1@PLT
	movq	%rax, %rsi
	movl	$0, %edx
	movq	%rbx, %rdi
	call	__gnat_end_handler_v1@PLT
.LEHE5:
	movl	$1, %ebx
	jmp	.L15
	.cfi_endproc
.LFE17:
	.section	.gcc_except_table.vector__dot__B108s___finalizer.1,"a",@progbits
	.align 4
.LLSDA17:
	.byte	0xff
	.byte	0x9b
	.uleb128 .LLSDATT17-.LLSDATTD17
.LLSDATTD17:
	.byte	0x1
	.uleb128 .LLSDACSE17-.LLSDACSB17
.LLSDACSB17:
	.uleb128 .LEHB3-.LFB17
	.uleb128 .LEHE3-.LEHB3
	.uleb128 0
	.uleb128 0
	.uleb128 .LEHB4-.LFB17
	.uleb128 .LEHE4-.LEHB4
	.uleb128 .L16-.LFB17
	.uleb128 0x1
	.uleb128 .LEHB5-.LFB17
	.uleb128 .LEHE5-.LEHB5
	.uleb128 0
	.uleb128 0
.LLSDACSE17:
	.byte	0x1
	.byte	0
	.align 4
	.long	DW.ref.__gnat_others_value-.
.LLSDATT17:
	.section	.text.vector__dot__B108s___finalizer.1
	.size	vector__dot__B108s___finalizer.1, .-vector__dot__B108s___finalizer.1
	.section	.rodata
.LC3:
	.ascii	"collision_math.ads"
	.zero	1
	.section	.text.collision_math__sq_dist_at_vec__B121s___finalizer.3,"ax",@progbits
	.align 2
	.type	collision_math__sq_dist_at_vec__B121s___finalizer.3, @function
collision_math__sq_dist_at_vec__B121s___finalizer.3:
.LFB5:
	.cfi_startproc
	.cfi_personality 0x9b,DW.ref.__gnat_personality_v0
	.cfi_lsda 0x1b,.LLSDA5
	pushq	%r14
	.cfi_def_cfa_offset 16
	.cfi_offset 14, -16
	pushq	%rbx
	.cfi_def_cfa_offset 24
	.cfi_offset 3, -24
.LEHB6:
	subq	$8, %rsp
	.cfi_def_cfa_offset 32
	movq	%r10, %rbx
	call	ada__exceptions__triggered_by_abort@PLT
	movl	%eax, %r14d
	call	*system__soft_links__abort_defer(%rip)
.LEHE6:
	movq	%rbx, %rdi
.LEHB7:
	call	system__finalization_primitives__finalize_master@PLT
.LEHE7:
	movl	$0, %ebx
.L23:
.LEHB8:
	call	*system__soft_links__abort_undefer(%rip)
	movl	%r14d, %eax
	xorl	$1, %eax
	testb	%al, %bl
	jne	.L26
	addq	$8, %rsp
	.cfi_remember_state
	.cfi_def_cfa_offset 24
	popq	%rbx
	.cfi_def_cfa_offset 16
	popq	%r14
	.cfi_def_cfa_offset 8
	ret
.L26:
	.cfi_restore_state
	movl	$30, %esi
	leaq	.LC3(%rip), %rdi
	call	__gnat_rcheck_PE_Finalize_Raised_Exception@PLT
.L24:
	movq	%rax, %rdi
	cmpq	$1, %rdx
	je	.L22
	call	_Unwind_Resume@PLT
.L22:
	movq	%rax, %rbx
	movq	%rax, %rdi
	call	__gnat_begin_handler_v1@PLT
	movq	%rax, %rsi
	movl	$0, %edx
	movq	%rbx, %rdi
	call	__gnat_end_handler_v1@PLT
.LEHE8:
	movl	$1, %ebx
	jmp	.L23
	.cfi_endproc
.LFE5:
	.section	.gcc_except_table.collision_math__sq_dist_at_vec__B121s___finalizer.3,"a",@progbits
	.align 4
.LLSDA5:
	.byte	0xff
	.byte	0x9b
	.uleb128 .LLSDATT5-.LLSDATTD5
.LLSDATTD5:
	.byte	0x1
	.uleb128 .LLSDACSE5-.LLSDACSB5
.LLSDACSB5:
	.uleb128 .LEHB6-.LFB5
	.uleb128 .LEHE6-.LEHB6
	.uleb128 0
	.uleb128 0
	.uleb128 .LEHB7-.LFB5
	.uleb128 .LEHE7-.LEHB7
	.uleb128 .L24-.LFB5
	.uleb128 0x1
	.uleb128 .LEHB8-.LFB5
	.uleb128 .LEHE8-.LEHB8
	.uleb128 0
	.uleb128 0
.LLSDACSE5:
	.byte	0x1
	.byte	0
	.align 4
	.long	DW.ref.__gnat_others_value-.
.LLSDATT5:
	.section	.text.collision_math__sq_dist_at_vec__B121s___finalizer.3
	.size	collision_math__sq_dist_at_vec__B121s___finalizer.3, .-collision_math__sq_dist_at_vec__B121s___finalizer.3
	.section	.rodata.collision_math__will_collide_vec.str1.1,"aMS",@progbits,1
.LC4:
	.string	"0"
	.section	.rodata
	.align 8
.LC0:
	.long	1
	.long	1
	.section	.text.collision_math__will_collide_vec,"ax",@progbits
	.align 2
	.globl	collision_math__will_collide_vec
	.type	collision_math__will_collide_vec, @function
collision_math__will_collide_vec:
.LVL0:
.LFB2:
	.file 1 "/workspaces/src/src/collision_math.ads"
	.loc 1 12 4 view -0
	.cfi_startproc
	.cfi_personality 0x9b,DW.ref.__gnat_personality_v0
	.cfi_lsda 0x1b,.LLSDA2
	.loc 1 12 4 is_stmt 0 view .LVU1
	pushq	%r15
	.cfi_def_cfa_offset 16
	.cfi_offset 15, -16
	pushq	%r14
	.cfi_def_cfa_offset 24
	.cfi_offset 14, -24
	pushq	%r13
	.cfi_def_cfa_offset 32
	.cfi_offset 13, -32
	pushq	%r12
	.cfi_def_cfa_offset 40
	.cfi_offset 12, -40
	pushq	%rbp
	.cfi_def_cfa_offset 48
	.cfi_offset 6, -48
	pushq	%rbx
	.cfi_def_cfa_offset 56
	.cfi_offset 3, -56
.LEHB9:
	subq	$1800, %rsp
	.cfi_def_cfa_offset 1856
.LEHE9:
	movq	%rdi, %rbx
	movq	%rsi, %rbp
	movq	%rdx, 8(%rsp)
.LBB238:
	.loc 1 12 4 is_stmt 1 discriminator 1 view .LVU2
	leaq	1856(%rsp), %rax
	movq	%rax, 944(%rsp)
.LVL1:
	.loc 1 14 19 view .LVU3
	movq	$0, 560(%rsp)
	movq	$0, 568(%rsp)
	movq	$0, 576(%rsp)
.LVL2:
	.loc 1 14 46 discriminator 3 view .LVU4
	movq	$0, 584(%rsp)
	movq	$0, 592(%rsp)
	movq	$0, 600(%rsp)
.LVL3:
	.loc 1 14 33 discriminator 6 view .LVU5
	movq	$0, 608(%rsp)
	movq	$0, 616(%rsp)
	movq	$0, 624(%rsp)
.LVL4:
	.loc 1 15 27 view .LVU6
	movq	$0, 632(%rsp)
	movq	$0, 640(%rsp)
	movq	$0, 648(%rsp)
.LVL5:
	.loc 1 15 55 discriminator 2 view .LVU7
	movq	$0, 656(%rsp)
	movq	$0, 664(%rsp)
	movq	$0, 672(%rsp)
.LVL6:
	.loc 1 15 42 discriminator 4 view .LVU8
	movq	$0, 680(%rsp)
	movq	$0, 688(%rsp)
	movq	$0, 696(%rsp)
.LVL7:
	.loc 1 16 21 view .LVU9
	movq	$0, 704(%rsp)
	movq	$0, 712(%rsp)
	movq	$0, 720(%rsp)
.LVL8:
	.loc 1 17 21 view .LVU10
	movq	$0, 728(%rsp)
	movq	$0, 736(%rsp)
	movq	$0, 744(%rsp)
.LVL9:
	.loc 1 17 41 discriminator 2 view .LVU11
	movq	$0, 752(%rsp)
	movq	$0, 760(%rsp)
	movq	$0, 768(%rsp)
.LVL10:
	.loc 1 17 33 discriminator 4 view .LVU12
	movq	$0, 776(%rsp)
	movq	$0, 784(%rsp)
	movq	$0, 792(%rsp)
.LVL11:
	.loc 1 18 25 view .LVU13
	movq	$0, 800(%rsp)
	movq	$0, 808(%rsp)
	movq	$0, 816(%rsp)
.LVL12:
	.loc 1 18 45 discriminator 2 view .LVU14
	movq	$0, 824(%rsp)
	movq	$0, 832(%rsp)
	movq	$0, 840(%rsp)
.LVL13:
	.loc 1 18 37 discriminator 4 view .LVU15
	movq	$0, 848(%rsp)
	movq	$0, 856(%rsp)
	movq	$0, 864(%rsp)
.LVL14:
	.loc 1 18 17 discriminator 6 view .LVU16
	movq	$0, 872(%rsp)
	movq	$0, 880(%rsp)
	movq	$0, 888(%rsp)
.LVL15:
	.loc 1 19 31 view .LVU17
	movq	$0, 896(%rsp)
	movq	$0, 904(%rsp)
	movq	$0, 912(%rsp)
.LVL16:
	.loc 1 19 23 discriminator 2 view .LVU18
	movq	$0, 920(%rsp)
	movq	$0, 928(%rsp)
	movq	$0, 936(%rsp)
.LVL17:
.LBB239:
.LBB240:
	.file 2 "/workspaces/src/src/vector.ads"
	.loc 2 21 4 discriminator 1 view .LVU19
	movq	%rax, 1008(%rsp)
.LVL18:
	.loc 2 22 20 view .LVU20
	movb	$1, 992(%rsp)
	movb	$0, 993(%rsp)
	movb	$0, 994(%rsp)
	movq	$0, 1000(%rsp)
.LVL19:
	.loc 2 22 13 discriminator 3 view .LVU21
	movq	$0, 1056(%rsp)
	movq	$0, 1064(%rsp)
	movq	$0, 1072(%rsp)
.LVL20:
	.loc 2 22 13 is_stmt 0 discriminator 6 view .LVU22
	leaq	528(%rsp), %rdi
.LVL21:
	.loc 2 22 13 discriminator 6 view .LVU23
	movq	%rsi, %rdx
.LVL22:
.LEHB10:
	.loc 2 22 13 discriminator 6 view .LVU24
	call	ada__numerics__big_numbers__big_reals__Omultiply@PLT
.LVL23:
	.loc 2 22 13 discriminator 9 view .LVU25
	leaq	992(%rsp), %rcx
	leaq	1056(%rsp), %rdx
	leaq	528(%rsp), %rdi
	movq	ada__numerics__big_numbers__big_reals__big_realFD@GOTPCREL(%rip), %rsi
	call	system__finalization_primitives__attach_object_to_master@PLT
.LVL24:
	.loc 2 22 27 is_stmt 1 discriminator 12 view .LVU26
	movq	$0, 1024(%rsp)
	movq	$0, 1032(%rsp)
	movq	$0, 1040(%rsp)
.LVL25:
	.loc 2 22 27 is_stmt 0 discriminator 15 view .LVU27
	leaq	32(%rbp), %r12
	leaq	496(%rsp), %rdi
	movq	%r12, %rdx
	movq	%r12, %rsi
	call	ada__numerics__big_numbers__big_reals__Omultiply@PLT
.LVL26:
	.loc 2 22 27 discriminator 18 view .LVU28
	leaq	992(%rsp), %rcx
	leaq	1024(%rsp), %rdx
	leaq	496(%rsp), %rdi
	movq	ada__numerics__big_numbers__big_reals__big_realFD@GOTPCREL(%rip), %rsi
	call	system__finalization_primitives__attach_object_to_master@PLT
.LVL27:
	.loc 2 22 20 is_stmt 1 discriminator 21 view .LVU29
	leaq	16(%rsp), %rdi
	leaq	496(%rsp), %rdx
	leaq	528(%rsp), %rsi
	call	ada__numerics__big_numbers__big_reals__Oadd__2@PLT
.LVL28:
.LEHE10:
	.loc 2 22 0 view .LVU30
	leaq	992(%rsp), %r10
.LEHB11:
	call	vector__dot__B108s___finalizer.1
.LVL29:
	.loc 2 22 0 is_stmt 0 view .LVU31
.LBE240:
.LBE239:
	.loc 1 14 19 is_stmt 1 discriminator 11 view .LVU32
	leaq	560(%rsp), %rdx
	leaq	16(%rsp), %rdi
	movq	ada__numerics__big_numbers__big_reals__big_realFD@GOTPCREL(%rip), %rsi
	call	system__finalization_primitives__attach_object_to_node@PLT
.LVL30:
	jmp	.L76
.LVL31:
.L54:
.LBB242:
.LBB241:
	.loc 2 22 0 discriminator 23 view .LVU33
	movq	%rax, %rbx
.LVL32:
	.loc 2 22 0 is_stmt 0 discriminator 23 view .LVU34
	leaq	992(%rsp), %r10
	call	vector__dot__B108s___finalizer.1
.LVL33:
	jmp	.L30
.LVL34:
.L76:
	.loc 2 22 0 discriminator 23 view .LVU35
.LBE241:
.LBE242:
.LBB243:
	.loc 1 14 46 is_stmt 1 discriminator 14 view .LVU36
	leaq	.LC4(%rip), %r15
	leaq	.LC0(%rip), %r14
	leaq	960(%rsp), %rdi
	movq	%r15, %rsi
	movq	%r14, %rdx
	call	ada__numerics__big_numbers__big_integers__from_string@PLT
.LVL35:
.LBE243:
	.loc 1 14 46 is_stmt 0 discriminator 17 view .LVU37
	leaq	584(%rsp), %rdx
	leaq	960(%rsp), %rdi
	movq	ada__numerics__big_numbers__big_integers__big_integerFD@GOTPCREL(%rip), %rsi
	call	system__finalization_primitives__attach_object_to_node@PLT
.LVL36:
.LEHE11:
.LBB244:
.LBB245:
	.file 3 "/home/vscode/.local/libexec/spark/lib/gcc/x86_64-pc-linux-gnu/15.1.0/adainclude/a-nbnbre.ads"
	.loc 3 60 4 is_stmt 1 discriminator 1 view .LVU38
	leaq	1856(%rsp), %rax
.LVL37:
	.loc 3 60 4 is_stmt 0 discriminator 1 view .LVU39
	movq	%rax, 456(%rsp)
.LVL38:
	.loc 3 62 36 is_stmt 1 view .LVU40
	movq	$0, 432(%rsp)
	movq	$0, 440(%rsp)
	movq	$0, 448(%rsp)
.LVL39:
	.loc 3 62 50 discriminator 3 view .LVU41
	leaq	1088(%rsp), %rdi
	movl	$1, %esi
.LEHB12:
	call	ada__numerics__big_numbers__big_integers__to_big_integer@PLT
.LVL40:
	.loc 3 62 50 is_stmt 0 discriminator 6 view .LVU42
	leaq	432(%rsp), %rdx
	leaq	1088(%rsp), %rdi
	movq	ada__numerics__big_numbers__big_integers__big_integerFD@GOTPCREL(%rip), %rsi
	call	system__finalization_primitives__attach_object_to_node@PLT
.LVL41:
	.loc 3 62 36 is_stmt 1 discriminator 9 view .LVU43
	leaq	48(%rsp), %rdi
	leaq	1088(%rsp), %rdx
	leaq	960(%rsp), %rsi
.LVL42:
	.loc 3 62 36 is_stmt 0 discriminator 9 view .LVU44
	call	ada__numerics__big_numbers__big_reals__Odivide@PLT
.LVL43:
.LEHE12:
	.loc 3 62 0 is_stmt 1 view .LVU45
	leaq	432(%rsp), %r10
.LEHB13:
	call	ada__numerics__big_numbers__big_reals__to_big_real__B38s___finalizer.0
.LVL44:
	.loc 3 62 0 is_stmt 0 view .LVU46
.LBE245:
.LBE244:
	.loc 1 14 33 is_stmt 1 discriminator 23 view .LVU47
	leaq	608(%rsp), %rdx
	leaq	48(%rsp), %rdi
	movq	ada__numerics__big_numbers__big_reals__big_realFD@GOTPCREL(%rip), %rsi
	call	system__finalization_primitives__attach_object_to_node@PLT
.LVL45:
	jmp	.L77
.LVL46:
.L55:
.LBB247:
.LBB246:
	.loc 3 62 0 discriminator 11 view .LVU48
	movq	%rax, %rbx
.LVL47:
	.loc 3 62 0 is_stmt 0 discriminator 11 view .LVU49
	leaq	432(%rsp), %r10
	call	ada__numerics__big_numbers__big_reals__to_big_real__B38s___finalizer.0
.LVL48:
	jmp	.L30
.LVL49:
.L77:
	.loc 3 62 0 discriminator 11 view .LVU50
.LBE246:
.LBE247:
	.loc 1 14 31 is_stmt 1 discriminator 26 view .LVU51
	leaq	48(%rsp), %rsi
	leaq	16(%rsp), %rdi
	call	ada__numerics__big_numbers__big_reals__Oeq@PLT
.LVL50:
	movl	%eax, %r13d
	.loc 1 14 19 discriminator 29 view .LVU52
	leaq	560(%rsp), %rdi
	movq	ada__numerics__big_numbers__big_reals__big_realFD@GOTPCREL(%rip), %rsi
	call	system__finalization_primitives__finalize_object@PLT
.LVL51:
	.loc 1 14 46 discriminator 32 view .LVU53
	leaq	584(%rsp), %rdi
	movq	ada__numerics__big_numbers__big_integers__big_integerFD@GOTPCREL(%rip), %rsi
	call	system__finalization_primitives__finalize_object@PLT
.LVL52:
	.loc 1 14 33 discriminator 35 view .LVU54
	leaq	608(%rsp), %rdi
	movq	ada__numerics__big_numbers__big_reals__big_realFD@GOTPCREL(%rip), %rsi
	call	system__finalization_primitives__finalize_object@PLT
.LVL53:
.LEHE13:
	.loc 1 14 10 discriminator 38 view .LVU55
	testb	%r13b, %r13b
	jne	.L33
.LVL54:
.LBB248:
.LBB249:
	.loc 2 21 4 discriminator 1 view .LVU56
	leaq	1856(%rsp), %rax
.LVL55:
	.loc 2 21 4 is_stmt 0 discriminator 1 view .LVU57
	movq	%rax, 1120(%rsp)
.LVL56:
	.loc 2 22 20 is_stmt 1 view .LVU58
	movb	$1, 1104(%rsp)
	movb	$0, 1105(%rsp)
	movb	$0, 1106(%rsp)
	movq	$0, 1112(%rsp)
.LVL57:
	.loc 2 22 13 discriminator 3 view .LVU59
	movq	$0, 1168(%rsp)
	movq	$0, 1176(%rsp)
	movq	$0, 1184(%rsp)
.LVL58:
	.loc 2 22 13 is_stmt 0 discriminator 6 view .LVU60
	leaq	528(%rsp), %rdi
	movq	%rbp, %rdx
	movq	%rbx, %rsi
.LEHB14:
	call	ada__numerics__big_numbers__big_reals__Omultiply@PLT
.LVL59:
	.loc 2 22 13 discriminator 9 view .LVU61
	leaq	1104(%rsp), %rcx
	leaq	1168(%rsp), %rdx
	leaq	528(%rsp), %rdi
	movq	ada__numerics__big_numbers__big_reals__big_realFD@GOTPCREL(%rip), %rsi
	call	system__finalization_primitives__attach_object_to_master@PLT
.LVL60:
	.loc 2 22 27 is_stmt 1 discriminator 12 view .LVU62
	movq	$0, 1136(%rsp)
	movq	$0, 1144(%rsp)
	movq	$0, 1152(%rsp)
.LVL61:
	.loc 2 22 27 is_stmt 0 discriminator 15 view .LVU63
	leaq	32(%rbx), %r13
	leaq	496(%rsp), %rdi
	movq	%r12, %rdx
	movq	%r13, %rsi
	call	ada__numerics__big_numbers__big_reals__Omultiply@PLT
.LVL62:
	.loc 2 22 27 discriminator 18 view .LVU64
	leaq	1104(%rsp), %rcx
	leaq	1136(%rsp), %rdx
	leaq	496(%rsp), %rdi
	movq	ada__numerics__big_numbers__big_reals__big_realFD@GOTPCREL(%rip), %rsi
	call	system__finalization_primitives__attach_object_to_master@PLT
.LVL63:
	.loc 2 22 20 is_stmt 1 discriminator 21 view .LVU65
	leaq	80(%rsp), %rdi
	leaq	496(%rsp), %rdx
	leaq	528(%rsp), %rsi
	call	ada__numerics__big_numbers__big_reals__Oadd__2@PLT
.LVL64:
.LEHE14:
	.loc 2 22 0 view .LVU66
	leaq	1104(%rsp), %r10
.LEHB15:
	call	vector__dot__B108s___finalizer.1
.LVL65:
	.loc 2 22 0 is_stmt 0 view .LVU67
.LBE249:
.LBE248:
	.loc 1 15 27 is_stmt 1 discriminator 7 view .LVU68
	leaq	632(%rsp), %rdx
	leaq	80(%rsp), %rdi
	movq	ada__numerics__big_numbers__big_reals__big_realFD@GOTPCREL(%rip), %rsi
	call	system__finalization_primitives__attach_object_to_node@PLT
.LVL66:
	jmp	.L78
.LVL67:
.L56:
.LBB251:
.LBB250:
	.loc 2 22 0 discriminator 23 view .LVU69
	movq	%rax, %rbx
.LVL68:
	.loc 2 22 0 is_stmt 0 discriminator 23 view .LVU70
	leaq	1104(%rsp), %r10
	call	vector__dot__B108s___finalizer.1
.LVL69:
	jmp	.L30
.LVL70:
.L78:
	.loc 2 22 0 discriminator 23 view .LVU71
.LBE250:
.LBE251:
.LBB252:
	.loc 1 15 55 is_stmt 1 discriminator 9 view .LVU72
	leaq	976(%rsp), %rdi
	movq	%r15, %rsi
	movq	%r14, %rdx
	call	ada__numerics__big_numbers__big_integers__from_string@PLT
.LVL71:
.LBE252:
	.loc 1 15 55 is_stmt 0 discriminator 11 view .LVU73
	leaq	656(%rsp), %rdx
	leaq	976(%rsp), %rdi
	movq	ada__numerics__big_numbers__big_integers__big_integerFD@GOTPCREL(%rip), %rsi
	call	system__finalization_primitives__attach_object_to_node@PLT
.LVL72:
.LEHE15:
.LBB253:
.LBB254:
	.loc 3 60 4 is_stmt 1 discriminator 1 view .LVU74
	leaq	1856(%rsp), %rax
.LVL73:
	.loc 3 60 4 is_stmt 0 discriminator 1 view .LVU75
	movq	%rax, 488(%rsp)
.LVL74:
	.loc 3 62 36 is_stmt 1 view .LVU76
	movq	$0, 464(%rsp)
	movq	$0, 472(%rsp)
	movq	$0, 480(%rsp)
.LVL75:
	.loc 3 62 50 discriminator 3 view .LVU77
	leaq	1200(%rsp), %rdi
	movl	$1, %esi
.LEHB16:
	call	ada__numerics__big_numbers__big_integers__to_big_integer@PLT
.LVL76:
	.loc 3 62 50 is_stmt 0 discriminator 6 view .LVU78
	leaq	464(%rsp), %rdx
	leaq	1200(%rsp), %rdi
	movq	ada__numerics__big_numbers__big_integers__big_integerFD@GOTPCREL(%rip), %rsi
	call	system__finalization_primitives__attach_object_to_node@PLT
.LVL77:
	.loc 3 62 36 is_stmt 1 discriminator 9 view .LVU79
	leaq	112(%rsp), %rdi
	leaq	1200(%rsp), %rdx
	leaq	976(%rsp), %rsi
.LVL78:
	.loc 3 62 36 is_stmt 0 discriminator 9 view .LVU80
	call	ada__numerics__big_numbers__big_reals__Odivide@PLT
.LVL79:
.LEHE16:
	.loc 3 62 0 is_stmt 1 view .LVU81
	leaq	464(%rsp), %r10
.LEHB17:
	call	ada__numerics__big_numbers__big_reals__to_big_real__B38s___finalizer.0
.LVL80:
	.loc 3 62 0 is_stmt 0 view .LVU82
.LBE254:
.LBE253:
	.loc 1 15 42 is_stmt 1 discriminator 15 view .LVU83
	leaq	680(%rsp), %rdx
	leaq	112(%rsp), %rdi
	movq	ada__numerics__big_numbers__big_reals__big_realFD@GOTPCREL(%rip), %rsi
	call	system__finalization_primitives__attach_object_to_node@PLT
.LVL81:
	jmp	.L79
.LVL82:
.L57:
.LBB256:
.LBB255:
	.loc 3 62 0 discriminator 11 view .LVU84
	movq	%rax, %rbx
.LVL83:
	.loc 3 62 0 is_stmt 0 discriminator 11 view .LVU85
	leaq	464(%rsp), %r10
	call	ada__numerics__big_numbers__big_reals__to_big_real__B38s___finalizer.0
.LVL84:
	jmp	.L30
.LVL85:
.L79:
	.loc 3 62 0 discriminator 11 view .LVU86
.LBE255:
.LBE256:
	.loc 1 15 39 is_stmt 1 discriminator 17 view .LVU87
	leaq	112(%rsp), %rsi
	leaq	80(%rsp), %rdi
	call	ada__numerics__big_numbers__big_reals__Oge@PLT
.LVL86:
	movl	%eax, %r14d
	.loc 1 15 39 is_stmt 0 discriminator 19 view .LVU88
	cmpb	$1, %al
	ja	.L80
	.loc 1 15 27 is_stmt 1 discriminator 21 view .LVU89
	leaq	632(%rsp), %rdi
	movq	ada__numerics__big_numbers__big_reals__big_realFD@GOTPCREL(%rip), %rsi
	call	system__finalization_primitives__finalize_object@PLT
.LVL87:
	jmp	.L81
.L80:
	.loc 1 15 39 discriminator 20 view .LVU90
	movl	$15, %esi
	leaq	.LC3(%rip), %rdi
	call	__gnat_rcheck_CE_Invalid_Data@PLT
.LVL88:
.LEHE17:
.L53:
	.loc 1 14 0 discriminator 37 view .LVU91
	movq	%rax, %rbx
.L30:
	leaq	560(%rsp), %r10
.LEHB18:
	call	collision_math__will_collide_vec__B8s___finalizer.2
.LVL89:
	movq	%rbx, %rdi
	call	_Unwind_Resume@PLT
.LVL90:
.LEHE18:
.L81:
	.loc 1 15 55 discriminator 24 view .LVU92
	leaq	656(%rsp), %rdi
	movq	ada__numerics__big_numbers__big_integers__big_integerFD@GOTPCREL(%rip), %rsi
.LEHB19:
	call	system__finalization_primitives__finalize_object@PLT
.LVL91:
	.loc 1 15 42 discriminator 26 view .LVU93
	leaq	680(%rsp), %rdi
	movq	ada__numerics__big_numbers__big_reals__big_realFD@GOTPCREL(%rip), %rsi
	call	system__finalization_primitives__finalize_object@PLT
.LVL92:
.LEHE19:
	.loc 1 15 13 discriminator 28 view .LVU94
	testb	%r14b, %r14b
	je	.L39
.LVL93:
.L33:
.LBB257:
.LBB258:
	.loc 2 21 4 discriminator 1 view .LVU95
	leaq	1856(%rsp), %rax
.LVL94:
	.loc 2 21 4 is_stmt 0 discriminator 1 view .LVU96
	movq	%rax, 1232(%rsp)
.LVL95:
	.loc 2 22 20 is_stmt 1 view .LVU97
	movb	$1, 1216(%rsp)
	movb	$0, 1217(%rsp)
	movb	$0, 1218(%rsp)
	movq	$0, 1224(%rsp)
.LVL96:
	.loc 2 22 13 discriminator 3 view .LVU98
	movq	$0, 1280(%rsp)
	movq	$0, 1288(%rsp)
	movq	$0, 1296(%rsp)
.LVL97:
	.loc 2 22 13 is_stmt 0 discriminator 6 view .LVU99
	leaq	528(%rsp), %rdi
	movq	%rbx, %rdx
	movq	%rbx, %rsi
.LEHB20:
	call	ada__numerics__big_numbers__big_reals__Omultiply@PLT
.LVL98:
	.loc 2 22 13 discriminator 9 view .LVU100
	leaq	1216(%rsp), %rcx
	leaq	1280(%rsp), %rdx
	leaq	528(%rsp), %rdi
	movq	ada__numerics__big_numbers__big_reals__big_realFD@GOTPCREL(%rip), %rsi
	call	system__finalization_primitives__attach_object_to_master@PLT
.LVL99:
	.loc 2 22 27 is_stmt 1 discriminator 12 view .LVU101
	movq	$0, 1248(%rsp)
	movq	$0, 1256(%rsp)
	movq	$0, 1264(%rsp)
.LVL100:
	.loc 2 22 27 is_stmt 0 discriminator 15 view .LVU102
	leaq	32(%rbx), %rsi
	leaq	496(%rsp), %rdi
	movq	%rsi, %rdx
	call	ada__numerics__big_numbers__big_reals__Omultiply@PLT
.LVL101:
	.loc 2 22 27 discriminator 18 view .LVU103
	leaq	1216(%rsp), %rcx
	leaq	1248(%rsp), %rdx
	leaq	496(%rsp), %rdi
	movq	ada__numerics__big_numbers__big_reals__big_realFD@GOTPCREL(%rip), %rsi
	call	system__finalization_primitives__attach_object_to_master@PLT
.LVL102:
	.loc 2 22 20 is_stmt 1 discriminator 21 view .LVU104
	leaq	144(%rsp), %rdi
	leaq	496(%rsp), %rdx
	leaq	528(%rsp), %rsi
	call	ada__numerics__big_numbers__big_reals__Oadd__2@PLT
.LVL103:
.LEHE20:
	.loc 2 22 0 view .LVU105
	leaq	1216(%rsp), %r10
.LEHB21:
	call	vector__dot__B108s___finalizer.1
.LVL104:
	.loc 2 22 0 is_stmt 0 view .LVU106
.LBE258:
.LBE257:
	.loc 1 16 21 is_stmt 1 discriminator 3 view .LVU107
	leaq	704(%rsp), %rdx
	leaq	144(%rsp), %rdi
	movq	ada__numerics__big_numbers__big_reals__big_realFD@GOTPCREL(%rip), %rsi
	call	system__finalization_primitives__attach_object_to_node@PLT
.LVL105:
	jmp	.L82
.LVL106:
.L58:
.LBB260:
.LBB259:
	.loc 2 22 0 discriminator 23 view .LVU108
	movq	%rax, %rbx
.LVL107:
	.loc 2 22 0 is_stmt 0 discriminator 23 view .LVU109
	leaq	1216(%rsp), %r10
	call	vector__dot__B108s___finalizer.1
.LVL108:
	jmp	.L30
.LVL109:
.L82:
	.loc 2 22 0 discriminator 23 view .LVU110
.LBE259:
.LBE260:
	.loc 1 16 33 is_stmt 1 discriminator 5 view .LVU111
	leaq	144(%rsp), %rdi
	movq	8(%rsp), %rsi
	call	ada__numerics__big_numbers__big_reals__Ole@PLT
.LVL110:
.LEHE21:
	movl	%eax, %ebx
.LVL111:
	.loc 1 16 33 is_stmt 0 discriminator 7 view .LVU112
	cmpb	$1, %al
	ja	.L83
.LVL112:
.L42:
	.loc 1 14 0 is_stmt 1 view .LVU113
	leaq	560(%rsp), %r10
.LEHB22:
	call	collision_math__will_collide_vec__B8s___finalizer.2
.LVL113:
.LBE238:
	.loc 1 12 4 view .LVU114
	movl	%ebx, %eax
	addq	$1800, %rsp
	.cfi_remember_state
	.cfi_def_cfa_offset 56
.LEHE22:
	popq	%rbx
	.cfi_def_cfa_offset 48
	popq	%rbp
	.cfi_def_cfa_offset 40
.LVL114:
	.loc 1 12 4 is_stmt 0 view .LVU115
	popq	%r12
	.cfi_def_cfa_offset 32
.LVL115:
	.loc 1 12 4 view .LVU116
	popq	%r13
	.cfi_def_cfa_offset 24
	popq	%r14
	.cfi_def_cfa_offset 16
	popq	%r15
	.cfi_def_cfa_offset 8
	ret
.LVL116:
.L83:
	.cfi_restore_state
.LBB281:
	.loc 1 16 33 is_stmt 1 discriminator 8 view .LVU117
	movl	$16, %esi
	leaq	.LC3(%rip), %rdi
.LEHB23:
	call	__gnat_rcheck_CE_Invalid_Data@PLT
.LVL117:
.LEHE23:
.L39:
.LBB261:
.LBB262:
	.loc 2 21 4 discriminator 1 view .LVU118
	leaq	1856(%rsp), %rax
.LVL118:
	.loc 2 21 4 is_stmt 0 discriminator 1 view .LVU119
	movq	%rax, 1328(%rsp)
.LVL119:
	.loc 2 22 20 is_stmt 1 view .LVU120
	movb	$1, 1312(%rsp)
	movb	$0, 1313(%rsp)
	movb	$0, 1314(%rsp)
	movq	$0, 1320(%rsp)
.LVL120:
	.loc 2 22 13 discriminator 3 view .LVU121
	movq	$0, 1376(%rsp)
	movq	$0, 1384(%rsp)
	movq	$0, 1392(%rsp)
.LVL121:
	.loc 2 22 13 is_stmt 0 discriminator 6 view .LVU122
	leaq	528(%rsp), %rdi
	movq	%rbx, %rdx
	movq	%rbx, %rsi
.LEHB24:
	call	ada__numerics__big_numbers__big_reals__Omultiply@PLT
.LVL122:
	.loc 2 22 13 discriminator 9 view .LVU123
	leaq	1312(%rsp), %rcx
	leaq	1376(%rsp), %rdx
	leaq	528(%rsp), %rdi
	movq	ada__numerics__big_numbers__big_reals__big_realFD@GOTPCREL(%rip), %rsi
	call	system__finalization_primitives__attach_object_to_master@PLT
.LVL123:
	.loc 2 22 27 is_stmt 1 discriminator 12 view .LVU124
	movq	$0, 1344(%rsp)
	movq	$0, 1352(%rsp)
	movq	$0, 1360(%rsp)
.LVL124:
	.loc 2 22 27 is_stmt 0 discriminator 15 view .LVU125
	leaq	496(%rsp), %rdi
	movq	%r13, %rdx
	movq	%r13, %rsi
	call	ada__numerics__big_numbers__big_reals__Omultiply@PLT
.LVL125:
	.loc 2 22 27 discriminator 18 view .LVU126
	leaq	1312(%rsp), %rcx
	leaq	1344(%rsp), %rdx
	leaq	496(%rsp), %rdi
	movq	ada__numerics__big_numbers__big_reals__big_realFD@GOTPCREL(%rip), %rsi
	call	system__finalization_primitives__attach_object_to_master@PLT
.LVL126:
	.loc 2 22 20 is_stmt 1 discriminator 21 view .LVU127
	leaq	176(%rsp), %rdi
	leaq	496(%rsp), %rdx
	leaq	528(%rsp), %rsi
	call	ada__numerics__big_numbers__big_reals__Oadd__2@PLT
.LVL127:
.LEHE24:
	.loc 2 22 0 view .LVU128
	leaq	1312(%rsp), %r10
.LEHB25:
	call	vector__dot__B108s___finalizer.1
.LVL128:
	.loc 2 22 0 is_stmt 0 view .LVU129
.LBE262:
.LBE261:
	.loc 1 17 21 is_stmt 1 discriminator 7 view .LVU130
	leaq	728(%rsp), %rdx
	leaq	176(%rsp), %rdi
	movq	ada__numerics__big_numbers__big_reals__big_realFD@GOTPCREL(%rip), %rsi
	call	system__finalization_primitives__attach_object_to_node@PLT
.LVL129:
	jmp	.L84
.LVL130:
.L59:
.LBB264:
.LBB263:
	.loc 2 22 0 discriminator 23 view .LVU131
	movq	%rax, %rbx
.LVL131:
	.loc 2 22 0 is_stmt 0 discriminator 23 view .LVU132
	leaq	1312(%rsp), %r10
	call	vector__dot__B108s___finalizer.1
.LVL132:
.LEHE25:
	jmp	.L30
.LVL133:
.L84:
	.loc 2 22 0 discriminator 23 view .LVU133
.LBE263:
.LBE264:
.LBB265:
.LBB266:
	.loc 2 21 4 is_stmt 1 discriminator 1 view .LVU134
	leaq	1856(%rsp), %rax
.LVL134:
	.loc 2 21 4 is_stmt 0 discriminator 1 view .LVU135
	movq	%rax, 1424(%rsp)
.LVL135:
	.loc 2 22 20 is_stmt 1 view .LVU136
	movb	$1, 1408(%rsp)
	movb	$0, 1409(%rsp)
	movb	$0, 1410(%rsp)
	movq	$0, 1416(%rsp)
.LVL136:
	.loc 2 22 13 discriminator 3 view .LVU137
	movq	$0, 1472(%rsp)
	movq	$0, 1480(%rsp)
	movq	$0, 1488(%rsp)
.LVL137:
	.loc 2 22 13 is_stmt 0 discriminator 6 view .LVU138
	leaq	528(%rsp), %rdi
	movq	%rbp, %rdx
	movq	%rbp, %rsi
.LEHB26:
	call	ada__numerics__big_numbers__big_reals__Omultiply@PLT
.LVL138:
	.loc 2 22 13 discriminator 9 view .LVU139
	leaq	1408(%rsp), %rcx
	leaq	1472(%rsp), %rdx
	leaq	528(%rsp), %rdi
	movq	ada__numerics__big_numbers__big_reals__big_realFD@GOTPCREL(%rip), %rsi
	call	system__finalization_primitives__attach_object_to_master@PLT
.LVL139:
	.loc 2 22 27 is_stmt 1 discriminator 12 view .LVU140
	movq	$0, 1440(%rsp)
	movq	$0, 1448(%rsp)
	movq	$0, 1456(%rsp)
.LVL140:
	.loc 2 22 27 is_stmt 0 discriminator 15 view .LVU141
	leaq	496(%rsp), %rdi
	movq	%r12, %rdx
	movq	%r12, %rsi
	call	ada__numerics__big_numbers__big_reals__Omultiply@PLT
.LVL141:
	.loc 2 22 27 discriminator 18 view .LVU142
	leaq	1408(%rsp), %rcx
	leaq	1440(%rsp), %rdx
	leaq	496(%rsp), %rdi
	movq	ada__numerics__big_numbers__big_reals__big_realFD@GOTPCREL(%rip), %rsi
	call	system__finalization_primitives__attach_object_to_master@PLT
.LVL142:
	.loc 2 22 20 is_stmt 1 discriminator 21 view .LVU143
	leaq	208(%rsp), %rdi
	leaq	496(%rsp), %rdx
	leaq	528(%rsp), %rsi
	call	ada__numerics__big_numbers__big_reals__Oadd__2@PLT
.LVL143:
.LEHE26:
	.loc 2 22 0 view .LVU144
	leaq	1408(%rsp), %r10
.LEHB27:
	call	vector__dot__B108s___finalizer.1
.LVL144:
	.loc 2 22 0 is_stmt 0 view .LVU145
.LBE266:
.LBE265:
	.loc 1 17 41 is_stmt 1 discriminator 11 view .LVU146
	leaq	752(%rsp), %rdx
	leaq	208(%rsp), %rdi
	movq	ada__numerics__big_numbers__big_reals__big_realFD@GOTPCREL(%rip), %rsi
	call	system__finalization_primitives__attach_object_to_node@PLT
.LVL145:
	jmp	.L85
.LVL146:
.L60:
.LBB268:
.LBB267:
	.loc 2 22 0 discriminator 23 view .LVU147
	movq	%rax, %rbx
.LVL147:
	.loc 2 22 0 is_stmt 0 discriminator 23 view .LVU148
	leaq	1408(%rsp), %r10
	call	vector__dot__B108s___finalizer.1
.LVL148:
	jmp	.L30
.LVL149:
.L85:
	.loc 2 22 0 discriminator 23 view .LVU149
.LBE267:
.LBE268:
	.loc 1 17 33 is_stmt 1 discriminator 13 view .LVU150
	leaq	240(%rsp), %rdi
	leaq	208(%rsp), %rdx
	leaq	176(%rsp), %rsi
	call	ada__numerics__big_numbers__big_reals__Omultiply@PLT
.LVL150:
	.loc 1 17 33 is_stmt 0 discriminator 15 view .LVU151
	leaq	776(%rsp), %rdx
	leaq	240(%rsp), %rdi
	movq	ada__numerics__big_numbers__big_reals__big_realFD@GOTPCREL(%rip), %rsi
	call	system__finalization_primitives__attach_object_to_node@PLT
.LVL151:
.LEHE27:
.LBB269:
.LBB270:
	.loc 2 21 4 is_stmt 1 discriminator 1 view .LVU152
	leaq	1856(%rsp), %rax
.LVL152:
	.loc 2 21 4 is_stmt 0 discriminator 1 view .LVU153
	movq	%rax, 1520(%rsp)
.LVL153:
	.loc 2 22 20 is_stmt 1 view .LVU154
	movb	$1, 1504(%rsp)
	movb	$0, 1505(%rsp)
	movb	$0, 1506(%rsp)
	movq	$0, 1512(%rsp)
.LVL154:
	.loc 2 22 13 discriminator 3 view .LVU155
	movq	$0, 1568(%rsp)
	movq	$0, 1576(%rsp)
	movq	$0, 1584(%rsp)
.LVL155:
	.loc 2 22 13 is_stmt 0 discriminator 6 view .LVU156
	leaq	528(%rsp), %rdi
	movq	%rbp, %rdx
	movq	%rbx, %rsi
.LEHB28:
	call	ada__numerics__big_numbers__big_reals__Omultiply@PLT
.LVL156:
	.loc 2 22 13 discriminator 9 view .LVU157
	leaq	1504(%rsp), %rcx
	leaq	1568(%rsp), %rdx
	leaq	528(%rsp), %rdi
	movq	ada__numerics__big_numbers__big_reals__big_realFD@GOTPCREL(%rip), %rsi
	call	system__finalization_primitives__attach_object_to_master@PLT
.LVL157:
	.loc 2 22 27 is_stmt 1 discriminator 12 view .LVU158
	movq	$0, 1536(%rsp)
	movq	$0, 1544(%rsp)
	movq	$0, 1552(%rsp)
.LVL158:
	.loc 2 22 27 is_stmt 0 discriminator 15 view .LVU159
	leaq	496(%rsp), %rdi
	movq	%r12, %rdx
	movq	%r13, %rsi
	call	ada__numerics__big_numbers__big_reals__Omultiply@PLT
.LVL159:
	.loc 2 22 27 discriminator 18 view .LVU160
	leaq	1504(%rsp), %rcx
	leaq	1536(%rsp), %rdx
	leaq	496(%rsp), %rdi
	movq	ada__numerics__big_numbers__big_reals__big_realFD@GOTPCREL(%rip), %rsi
	call	system__finalization_primitives__attach_object_to_master@PLT
.LVL160:
	.loc 2 22 20 is_stmt 1 discriminator 21 view .LVU161
	leaq	272(%rsp), %rdi
	leaq	496(%rsp), %rdx
	leaq	528(%rsp), %rsi
	call	ada__numerics__big_numbers__big_reals__Oadd__2@PLT
.LVL161:
.LEHE28:
	.loc 2 22 0 view .LVU162
	leaq	1504(%rsp), %r10
.LEHB29:
	call	vector__dot__B108s___finalizer.1
.LVL162:
	.loc 2 22 0 is_stmt 0 view .LVU163
.LBE270:
.LBE269:
	.loc 1 18 25 is_stmt 1 discriminator 9 view .LVU164
	leaq	800(%rsp), %rdx
	leaq	272(%rsp), %rdi
	movq	ada__numerics__big_numbers__big_reals__big_realFD@GOTPCREL(%rip), %rsi
	call	system__finalization_primitives__attach_object_to_node@PLT
.LVL163:
	jmp	.L86
.LVL164:
.L61:
.LBB272:
.LBB271:
	.loc 2 22 0 discriminator 23 view .LVU165
	movq	%rax, %rbx
.LVL165:
	.loc 2 22 0 is_stmt 0 discriminator 23 view .LVU166
	leaq	1504(%rsp), %r10
	call	vector__dot__B108s___finalizer.1
.LVL166:
.LEHE29:
	jmp	.L30
.LVL167:
.L86:
	.loc 2 22 0 discriminator 23 view .LVU167
.LBE271:
.LBE272:
.LBB273:
.LBB274:
	.loc 2 21 4 is_stmt 1 discriminator 1 view .LVU168
	leaq	1856(%rsp), %rax
.LVL168:
	.loc 2 21 4 is_stmt 0 discriminator 1 view .LVU169
	movq	%rax, 1616(%rsp)
.LVL169:
	.loc 2 22 20 is_stmt 1 view .LVU170
	movb	$1, 1600(%rsp)
	movb	$0, 1601(%rsp)
	movb	$0, 1602(%rsp)
	movq	$0, 1608(%rsp)
.LVL170:
	.loc 2 22 13 discriminator 3 view .LVU171
	movq	$0, 1664(%rsp)
	movq	$0, 1672(%rsp)
	movq	$0, 1680(%rsp)
.LVL171:
	.loc 2 22 13 is_stmt 0 discriminator 6 view .LVU172
	leaq	528(%rsp), %rdi
	movq	%rbp, %rdx
	movq	%rbx, %rsi
.LEHB30:
	call	ada__numerics__big_numbers__big_reals__Omultiply@PLT
.LVL172:
	.loc 2 22 13 discriminator 9 view .LVU173
	leaq	1600(%rsp), %rcx
	leaq	1664(%rsp), %rdx
	leaq	528(%rsp), %rdi
	movq	ada__numerics__big_numbers__big_reals__big_realFD@GOTPCREL(%rip), %rsi
	call	system__finalization_primitives__attach_object_to_master@PLT
.LVL173:
	.loc 2 22 27 is_stmt 1 discriminator 12 view .LVU174
	movq	$0, 1632(%rsp)
	movq	$0, 1640(%rsp)
	movq	$0, 1648(%rsp)
.LVL174:
	.loc 2 22 27 is_stmt 0 discriminator 15 view .LVU175
	leaq	496(%rsp), %rdi
	movq	%r12, %rdx
	movq	%r13, %rsi
	call	ada__numerics__big_numbers__big_reals__Omultiply@PLT
.LVL175:
	.loc 2 22 27 discriminator 18 view .LVU176
	leaq	1600(%rsp), %rcx
	leaq	1632(%rsp), %rdx
	leaq	496(%rsp), %rdi
	movq	ada__numerics__big_numbers__big_reals__big_realFD@GOTPCREL(%rip), %rsi
	call	system__finalization_primitives__attach_object_to_master@PLT
.LVL176:
	.loc 2 22 20 is_stmt 1 discriminator 21 view .LVU177
	leaq	304(%rsp), %rdi
	leaq	496(%rsp), %rdx
	leaq	528(%rsp), %rsi
	call	ada__numerics__big_numbers__big_reals__Oadd__2@PLT
.LVL177:
.LEHE30:
	.loc 2 22 0 view .LVU178
	leaq	1600(%rsp), %r10
.LEHB31:
	call	vector__dot__B108s___finalizer.1
.LVL178:
	.loc 2 22 0 is_stmt 0 view .LVU179
.LBE274:
.LBE273:
	.loc 1 18 45 is_stmt 1 discriminator 13 view .LVU180
	leaq	824(%rsp), %rdx
	leaq	304(%rsp), %rdi
	movq	ada__numerics__big_numbers__big_reals__big_realFD@GOTPCREL(%rip), %rsi
	call	system__finalization_primitives__attach_object_to_node@PLT
.LVL179:
	jmp	.L87
.LVL180:
.L62:
.LBB276:
.LBB275:
	.loc 2 22 0 discriminator 23 view .LVU181
	movq	%rax, %rbx
.LVL181:
	.loc 2 22 0 is_stmt 0 discriminator 23 view .LVU182
	leaq	1600(%rsp), %r10
	call	vector__dot__B108s___finalizer.1
.LVL182:
	jmp	.L30
.LVL183:
.L87:
	.loc 2 22 0 discriminator 23 view .LVU183
.LBE275:
.LBE276:
	.loc 1 18 37 is_stmt 1 discriminator 15 view .LVU184
	leaq	336(%rsp), %rdi
	leaq	304(%rsp), %rdx
	leaq	272(%rsp), %rsi
	call	ada__numerics__big_numbers__big_reals__Omultiply@PLT
.LVL184:
	.loc 1 18 37 is_stmt 0 discriminator 17 view .LVU185
	leaq	848(%rsp), %rdx
	leaq	336(%rsp), %rdi
	movq	ada__numerics__big_numbers__big_reals__big_realFD@GOTPCREL(%rip), %rsi
	call	system__finalization_primitives__attach_object_to_node@PLT
.LVL185:
	.loc 1 18 17 is_stmt 1 discriminator 19 view .LVU186
	leaq	368(%rsp), %rdi
	leaq	336(%rsp), %rdx
	leaq	240(%rsp), %rsi
	call	ada__numerics__big_numbers__big_reals__Osubtract__2@PLT
.LVL186:
	.loc 1 18 17 is_stmt 0 discriminator 21 view .LVU187
	leaq	872(%rsp), %rdx
	leaq	368(%rsp), %rdi
	movq	ada__numerics__big_numbers__big_reals__big_realFD@GOTPCREL(%rip), %rsi
	call	system__finalization_primitives__attach_object_to_node@PLT
.LVL187:
.LEHE31:
.LBB277:
.LBB278:
	.loc 2 21 4 is_stmt 1 discriminator 1 view .LVU188
	leaq	1856(%rsp), %rax
.LVL188:
	.loc 2 21 4 is_stmt 0 discriminator 1 view .LVU189
	movq	%rax, 1712(%rsp)
.LVL189:
	.loc 2 22 20 is_stmt 1 view .LVU190
	movb	$1, 1696(%rsp)
	movb	$0, 1697(%rsp)
	movb	$0, 1698(%rsp)
	movq	$0, 1704(%rsp)
.LVL190:
	.loc 2 22 13 discriminator 3 view .LVU191
	movq	$0, 1760(%rsp)
	movq	$0, 1768(%rsp)
	movq	$0, 1776(%rsp)
.LVL191:
	.loc 2 22 13 is_stmt 0 discriminator 6 view .LVU192
	leaq	528(%rsp), %rdi
	movq	%rbp, %rdx
	movq	%rbp, %rsi
.LEHB32:
	call	ada__numerics__big_numbers__big_reals__Omultiply@PLT
.LVL192:
	.loc 2 22 13 discriminator 9 view .LVU193
	leaq	1696(%rsp), %rcx
	leaq	1760(%rsp), %rdx
	leaq	528(%rsp), %rdi
	movq	ada__numerics__big_numbers__big_reals__big_realFD@GOTPCREL(%rip), %rsi
	call	system__finalization_primitives__attach_object_to_master@PLT
.LVL193:
	.loc 2 22 27 is_stmt 1 discriminator 12 view .LVU194
	movq	$0, 1728(%rsp)
	movq	$0, 1736(%rsp)
	movq	$0, 1744(%rsp)
.LVL194:
	.loc 2 22 27 is_stmt 0 discriminator 15 view .LVU195
	leaq	496(%rsp), %rdi
	movq	%r12, %rdx
	movq	%r12, %rsi
	call	ada__numerics__big_numbers__big_reals__Omultiply@PLT
.LVL195:
	.loc 2 22 27 discriminator 18 view .LVU196
	leaq	1696(%rsp), %rcx
	leaq	1728(%rsp), %rdx
	leaq	496(%rsp), %rdi
	movq	ada__numerics__big_numbers__big_reals__big_realFD@GOTPCREL(%rip), %rsi
	call	system__finalization_primitives__attach_object_to_master@PLT
.LVL196:
	.loc 2 22 20 is_stmt 1 discriminator 21 view .LVU197
	leaq	400(%rsp), %rdi
	leaq	496(%rsp), %rdx
	leaq	528(%rsp), %rsi
	call	ada__numerics__big_numbers__big_reals__Oadd__2@PLT
.LVL197:
.LEHE32:
	.loc 2 22 0 view .LVU198
	leaq	1696(%rsp), %r10
.LEHB33:
	call	vector__dot__B108s___finalizer.1
.LVL198:
	.loc 2 22 0 is_stmt 0 view .LVU199
.LBE278:
.LBE277:
	.loc 1 19 31 is_stmt 1 discriminator 5 view .LVU200
	leaq	896(%rsp), %rdx
	leaq	400(%rsp), %rdi
	movq	ada__numerics__big_numbers__big_reals__big_realFD@GOTPCREL(%rip), %rsi
	call	system__finalization_primitives__attach_object_to_node@PLT
.LVL199:
	jmp	.L88
.LVL200:
.L63:
.LBB280:
.LBB279:
	.loc 2 22 0 discriminator 23 view .LVU201
	movq	%rax, %rbx
.LVL201:
	.loc 2 22 0 is_stmt 0 discriminator 23 view .LVU202
	leaq	1696(%rsp), %r10
	call	vector__dot__B108s___finalizer.1
.LVL202:
	jmp	.L30
.LVL203:
.L88:
	.loc 2 22 0 discriminator 23 view .LVU203
.LBE279:
.LBE280:
	.loc 1 19 23 is_stmt 1 discriminator 7 view .LVU204
	leaq	528(%rsp), %rdi
	leaq	400(%rsp), %rdx
	movq	8(%rsp), %rsi
	call	ada__numerics__big_numbers__big_reals__Omultiply@PLT
.LVL204:
	.loc 1 19 23 is_stmt 0 discriminator 9 view .LVU205
	leaq	920(%rsp), %rdx
	leaq	528(%rsp), %rdi
	movq	ada__numerics__big_numbers__big_reals__big_realFD@GOTPCREL(%rip), %rsi
	call	system__finalization_primitives__attach_object_to_node@PLT
.LVL205:
	.loc 1 19 15 is_stmt 1 discriminator 11 view .LVU206
	leaq	528(%rsp), %rsi
	leaq	368(%rsp), %rdi
	call	ada__numerics__big_numbers__big_reals__Ole@PLT
.LVL206:
	movl	%eax, %ebx
.LVL207:
	.loc 1 19 15 is_stmt 0 discriminator 13 view .LVU207
	cmpb	$1, %al
	jbe	.L42
	.loc 1 19 15 discriminator 14 view .LVU208
	movl	$19, %esi
	leaq	.LC3(%rip), %rdi
	call	__gnat_rcheck_CE_Invalid_Data@PLT
.LVL208:
.LEHE33:
.LBE281:
	.cfi_endproc
.LFE2:
	.section	.gcc_except_table.collision_math__will_collide_vec,"a",@progbits
.LLSDA2:
	.byte	0xff
	.byte	0xff
	.byte	0x1
	.uleb128 .LLSDACSE2-.LLSDACSB2
.LLSDACSB2:
	.uleb128 .LEHB9-.LFB2
	.uleb128 .LEHE9-.LEHB9
	.uleb128 0
	.uleb128 0
	.uleb128 .LEHB10-.LFB2
	.uleb128 .LEHE10-.LEHB10
	.uleb128 .L54-.LFB2
	.uleb128 0
	.uleb128 .LEHB11-.LFB2
	.uleb128 .LEHE11-.LEHB11
	.uleb128 .L53-.LFB2
	.uleb128 0
	.uleb128 .LEHB12-.LFB2
	.uleb128 .LEHE12-.LEHB12
	.uleb128 .L55-.LFB2
	.uleb128 0
	.uleb128 .LEHB13-.LFB2
	.uleb128 .LEHE13-.LEHB13
	.uleb128 .L53-.LFB2
	.uleb128 0
	.uleb128 .LEHB14-.LFB2
	.uleb128 .LEHE14-.LEHB14
	.uleb128 .L56-.LFB2
	.uleb128 0
	.uleb128 .LEHB15-.LFB2
	.uleb128 .LEHE15-.LEHB15
	.uleb128 .L53-.LFB2
	.uleb128 0
	.uleb128 .LEHB16-.LFB2
	.uleb128 .LEHE16-.LEHB16
	.uleb128 .L57-.LFB2
	.uleb128 0
	.uleb128 .LEHB17-.LFB2
	.uleb128 .LEHE17-.LEHB17
	.uleb128 .L53-.LFB2
	.uleb128 0
	.uleb128 .LEHB18-.LFB2
	.uleb128 .LEHE18-.LEHB18
	.uleb128 0
	.uleb128 0
	.uleb128 .LEHB19-.LFB2
	.uleb128 .LEHE19-.LEHB19
	.uleb128 .L53-.LFB2
	.uleb128 0
	.uleb128 .LEHB20-.LFB2
	.uleb128 .LEHE20-.LEHB20
	.uleb128 .L58-.LFB2
	.uleb128 0
	.uleb128 .LEHB21-.LFB2
	.uleb128 .LEHE21-.LEHB21
	.uleb128 .L53-.LFB2
	.uleb128 0
	.uleb128 .LEHB22-.LFB2
	.uleb128 .LEHE22-.LEHB22
	.uleb128 0
	.uleb128 0
	.uleb128 .LEHB23-.LFB2
	.uleb128 .LEHE23-.LEHB23
	.uleb128 .L53-.LFB2
	.uleb128 0
	.uleb128 .LEHB24-.LFB2
	.uleb128 .LEHE24-.LEHB24
	.uleb128 .L59-.LFB2
	.uleb128 0
	.uleb128 .LEHB25-.LFB2
	.uleb128 .LEHE25-.LEHB25
	.uleb128 .L53-.LFB2
	.uleb128 0
	.uleb128 .LEHB26-.LFB2
	.uleb128 .LEHE26-.LEHB26
	.uleb128 .L60-.LFB2
	.uleb128 0
	.uleb128 .LEHB27-.LFB2
	.uleb128 .LEHE27-.LEHB27
	.uleb128 .L53-.LFB2
	.uleb128 0
	.uleb128 .LEHB28-.LFB2
	.uleb128 .LEHE28-.LEHB28
	.uleb128 .L61-.LFB2
	.uleb128 0
	.uleb128 .LEHB29-.LFB2
	.uleb128 .LEHE29-.LEHB29
	.uleb128 .L53-.LFB2
	.uleb128 0
	.uleb128 .LEHB30-.LFB2
	.uleb128 .LEHE30-.LEHB30
	.uleb128 .L62-.LFB2
	.uleb128 0
	.uleb128 .LEHB31-.LFB2
	.uleb128 .LEHE31-.LEHB31
	.uleb128 .L53-.LFB2
	.uleb128 0
	.uleb128 .LEHB32-.LFB2
	.uleb128 .LEHE32-.LEHB32
	.uleb128 .L63-.LFB2
	.uleb128 0
	.uleb128 .LEHB33-.LFB2
	.uleb128 .LEHE33-.LEHB33
	.uleb128 .L53-.LFB2
	.uleb128 0
.LLSDACSE2:
	.section	.text.collision_math__will_collide_vec
	.size	collision_math__will_collide_vec, .-collision_math__will_collide_vec
	.section	.rodata.collision_math__sq_dist_at_vec.str1.1,"aMS",@progbits,1
.LC5:
	.string	"2"
	.section	.text.collision_math__sq_dist_at_vec,"ax",@progbits
	.align 2
	.globl	collision_math__sq_dist_at_vec
	.type	collision_math__sq_dist_at_vec, @function
collision_math__sq_dist_at_vec:
.LVL209:
.LFB4:
	.loc 1 26 4 is_stmt 1 view -0
	.cfi_startproc
	.cfi_personality 0x9b,DW.ref.__gnat_personality_v0
	.cfi_lsda 0x1b,.LLSDA4
	.loc 1 26 4 is_stmt 0 view .LVU210
	pushq	%r14
	.cfi_def_cfa_offset 16
	.cfi_offset 14, -16
	pushq	%r13
	.cfi_def_cfa_offset 24
	.cfi_offset 13, -24
	pushq	%r12
	.cfi_def_cfa_offset 32
	.cfi_offset 12, -32
	pushq	%rbp
	.cfi_def_cfa_offset 40
	.cfi_offset 6, -40
	pushq	%rbx
	.cfi_def_cfa_offset 48
	.cfi_offset 3, -48
.LEHB34:
	subq	$1024, %rsp
	.cfi_def_cfa_offset 1072
.LEHE34:
	movq	%rdi, %r13
	movq	%rsi, %rbp
	movq	%rdx, %rbx
	movq	%rcx, %r12
.LBB282:
	.loc 1 26 4 is_stmt 1 discriminator 1 view .LVU211
	leaq	1072(%rsp), %rax
	movq	%rax, 704(%rsp)
.LVL210:
	.loc 1 30 10 view .LVU212
	movb	$1, 688(%rsp)
	movb	$0, 689(%rsp)
	movb	$0, 690(%rsp)
	movq	$0, 696(%rsp)
.LVL211:
	.loc 1 28 16 view .LVU213
	movq	$0, 352(%rsp)
	movq	$0, 360(%rsp)
	movq	$0, 368(%rsp)
.LVL212:
.LBB283:
.LBB284:
	.loc 2 21 4 discriminator 1 view .LVU214
	movq	%rax, 736(%rsp)
.LVL213:
	.loc 2 22 20 view .LVU215
	movb	$1, 720(%rsp)
	movb	$0, 721(%rsp)
	movb	$0, 722(%rsp)
	movq	$0, 728(%rsp)
.LVL214:
	.loc 2 22 13 discriminator 3 view .LVU216
	movq	$0, 784(%rsp)
	movq	$0, 792(%rsp)
	movq	$0, 800(%rsp)
.LVL215:
	.loc 2 22 13 is_stmt 0 discriminator 6 view .LVU217
	leaq	320(%rsp), %rdi
.LVL216:
	.loc 2 22 13 discriminator 6 view .LVU218
	movq	%rsi, %rdx
.LVL217:
.LEHB35:
	.loc 2 22 13 discriminator 6 view .LVU219
	call	ada__numerics__big_numbers__big_reals__Omultiply@PLT
.LVL218:
	.loc 2 22 13 discriminator 9 view .LVU220
	leaq	720(%rsp), %rcx
	leaq	784(%rsp), %rdx
	leaq	320(%rsp), %rdi
	movq	ada__numerics__big_numbers__big_reals__big_realFD@GOTPCREL(%rip), %rsi
	call	system__finalization_primitives__attach_object_to_master@PLT
.LVL219:
	.loc 2 22 27 is_stmt 1 discriminator 12 view .LVU221
	movq	$0, 752(%rsp)
	movq	$0, 760(%rsp)
	movq	$0, 768(%rsp)
.LVL220:
	.loc 2 22 27 is_stmt 0 discriminator 15 view .LVU222
	leaq	32(%rbp), %r14
	leaq	288(%rsp), %rdi
	movq	%r14, %rdx
	movq	%r14, %rsi
	call	ada__numerics__big_numbers__big_reals__Omultiply@PLT
.LVL221:
	.loc 2 22 27 discriminator 18 view .LVU223
	leaq	720(%rsp), %rcx
	leaq	752(%rsp), %rdx
	leaq	288(%rsp), %rdi
	movq	ada__numerics__big_numbers__big_reals__big_realFD@GOTPCREL(%rip), %rsi
	call	system__finalization_primitives__attach_object_to_master@PLT
.LVL222:
	.loc 2 22 20 is_stmt 1 discriminator 21 view .LVU224
	movq	%rsp, %rdi
	leaq	288(%rsp), %rdx
	leaq	320(%rsp), %rsi
	call	ada__numerics__big_numbers__big_reals__Oadd__2@PLT
.LVL223:
.LEHE35:
	.loc 2 22 0 view .LVU225
	leaq	720(%rsp), %r10
.LEHB36:
	call	vector__dot__B108s___finalizer.1
.LVL224:
	.loc 2 22 0 is_stmt 0 view .LVU226
.LBE284:
.LBE283:
	.loc 1 28 16 is_stmt 1 discriminator 4 view .LVU227
	leaq	688(%rsp), %rcx
	leaq	352(%rsp), %rdx
	movq	%rsp, %rdi
	movq	ada__numerics__big_numbers__big_reals__big_realFD@GOTPCREL(%rip), %rsi
	call	system__finalization_primitives__attach_object_to_master@PLT
.LVL225:
	jmp	.L111
.LVL226:
.L100:
.LBB286:
.LBB285:
	.loc 2 22 0 discriminator 23 view .LVU228
	movq	%rax, %rbx
.LVL227:
	.loc 2 22 0 is_stmt 0 discriminator 23 view .LVU229
	leaq	720(%rsp), %r10
	call	vector__dot__B108s___finalizer.1
.LVL228:
	jmp	.L92
.LVL229:
.L111:
	.loc 2 22 0 discriminator 23 view .LVU230
.LBE285:
.LBE286:
	.loc 1 29 25 is_stmt 1 view .LVU231
	movq	$0, 384(%rsp)
	movq	$0, 392(%rsp)
	movq	$0, 400(%rsp)
.LVL230:
.LBB287:
	.loc 1 29 25 is_stmt 0 discriminator 2 view .LVU232
	leaq	416(%rsp), %rdi
	leaq	.LC5(%rip), %rsi
	leaq	.LC0(%rip), %rdx
	call	ada__numerics__big_numbers__big_integers__from_string@PLT
.LVL231:
.LBE287:
	.loc 1 29 25 discriminator 4 view .LVU233
	leaq	688(%rsp), %rcx
	leaq	384(%rsp), %rdx
	leaq	416(%rsp), %rdi
	movq	ada__numerics__big_numbers__big_integers__big_integerFD@GOTPCREL(%rip), %rsi
	call	system__finalization_primitives__attach_object_to_master@PLT
.LVL232:
.LEHE36:
	.loc 1 29 12 is_stmt 1 discriminator 6 view .LVU234
	movq	$0, 432(%rsp)
	movq	$0, 440(%rsp)
	movq	$0, 448(%rsp)
.LVL233:
.LBB288:
.LBB289:
	.loc 3 60 4 discriminator 1 view .LVU235
	leaq	1072(%rsp), %rax
.LVL234:
	.loc 3 60 4 is_stmt 0 discriminator 1 view .LVU236
	movq	%rax, 280(%rsp)
.LVL235:
	.loc 3 62 36 is_stmt 1 view .LVU237
	movq	$0, 256(%rsp)
	movq	$0, 264(%rsp)
	movq	$0, 272(%rsp)
.LVL236:
	.loc 3 62 50 discriminator 3 view .LVU238
	leaq	816(%rsp), %rdi
	movl	$1, %esi
.LEHB37:
	call	ada__numerics__big_numbers__big_integers__to_big_integer@PLT
.LVL237:
	.loc 3 62 50 is_stmt 0 discriminator 6 view .LVU239
	leaq	256(%rsp), %rdx
	leaq	816(%rsp), %rdi
	movq	ada__numerics__big_numbers__big_integers__big_integerFD@GOTPCREL(%rip), %rsi
	call	system__finalization_primitives__attach_object_to_node@PLT
.LVL238:
	.loc 3 62 36 is_stmt 1 discriminator 9 view .LVU240
	leaq	32(%rsp), %rdi
	leaq	816(%rsp), %rdx
	leaq	416(%rsp), %rsi
.LVL239:
	.loc 3 62 36 is_stmt 0 discriminator 9 view .LVU241
	call	ada__numerics__big_numbers__big_reals__Odivide@PLT
.LVL240:
.LEHE37:
	.loc 3 62 0 is_stmt 1 view .LVU242
	leaq	256(%rsp), %r10
.LEHB38:
	call	ada__numerics__big_numbers__big_reals__to_big_real__B38s___finalizer.0
.LVL241:
	.loc 3 62 0 is_stmt 0 view .LVU243
.LBE289:
.LBE288:
	.loc 1 29 12 is_stmt 1 discriminator 10 view .LVU244
	leaq	688(%rsp), %rcx
	leaq	432(%rsp), %rdx
	leaq	32(%rsp), %rdi
	movq	ada__numerics__big_numbers__big_reals__big_realFD@GOTPCREL(%rip), %rsi
	call	system__finalization_primitives__attach_object_to_master@PLT
.LVL242:
	jmp	.L112
.LVL243:
.L101:
.LBB291:
.LBB290:
	.loc 3 62 0 discriminator 11 view .LVU245
	movq	%rax, %rbx
.LVL244:
	.loc 3 62 0 is_stmt 0 discriminator 11 view .LVU246
	leaq	256(%rsp), %r10
	call	ada__numerics__big_numbers__big_reals__to_big_real__B38s___finalizer.0
.LVL245:
	jmp	.L92
.LVL246:
.L112:
	.loc 3 62 0 discriminator 11 view .LVU247
.LBE290:
.LBE291:
	.loc 1 29 28 is_stmt 1 discriminator 12 view .LVU248
	movq	$0, 464(%rsp)
	movq	$0, 472(%rsp)
	movq	$0, 480(%rsp)
.LVL247:
	.loc 1 29 28 is_stmt 0 discriminator 14 view .LVU249
	leaq	64(%rsp), %rdi
	leaq	32(%rsp), %rsi
	movq	%r12, %rdx
	call	ada__numerics__big_numbers__big_reals__Omultiply@PLT
.LVL248:
	.loc 1 29 28 discriminator 16 view .LVU250
	leaq	688(%rsp), %rcx
	leaq	464(%rsp), %rdx
	leaq	64(%rsp), %rdi
	movq	ada__numerics__big_numbers__big_reals__big_realFD@GOTPCREL(%rip), %rsi
	call	system__finalization_primitives__attach_object_to_master@PLT
.LVL249:
.LEHE38:
	.loc 1 29 40 is_stmt 1 discriminator 18 view .LVU251
	movq	$0, 496(%rsp)
	movq	$0, 504(%rsp)
	movq	$0, 512(%rsp)
.LVL250:
.LBB292:
.LBB293:
	.loc 2 21 4 discriminator 1 view .LVU252
	leaq	1072(%rsp), %rax
	movq	%rax, 848(%rsp)
.LVL251:
	.loc 2 22 20 view .LVU253
	movb	$1, 832(%rsp)
	movb	$0, 833(%rsp)
	movb	$0, 834(%rsp)
	movq	$0, 840(%rsp)
.LVL252:
	.loc 2 22 13 discriminator 3 view .LVU254
	movq	$0, 896(%rsp)
	movq	$0, 904(%rsp)
	movq	$0, 912(%rsp)
.LVL253:
	.loc 2 22 13 is_stmt 0 discriminator 6 view .LVU255
	leaq	320(%rsp), %rdi
	movq	%rbx, %rdx
	movq	%rbp, %rsi
.LEHB39:
	call	ada__numerics__big_numbers__big_reals__Omultiply@PLT
.LVL254:
	.loc 2 22 13 discriminator 9 view .LVU256
	leaq	832(%rsp), %rcx
	leaq	896(%rsp), %rdx
	leaq	320(%rsp), %rdi
	movq	ada__numerics__big_numbers__big_reals__big_realFD@GOTPCREL(%rip), %rsi
	call	system__finalization_primitives__attach_object_to_master@PLT
.LVL255:
	.loc 2 22 27 is_stmt 1 discriminator 12 view .LVU257
	movq	$0, 864(%rsp)
	movq	$0, 872(%rsp)
	movq	$0, 880(%rsp)
.LVL256:
	.loc 2 22 27 is_stmt 0 discriminator 15 view .LVU258
	leaq	32(%rbx), %rbp
.LVL257:
	.loc 2 22 27 discriminator 15 view .LVU259
	leaq	288(%rsp), %rdi
	movq	%rbp, %rdx
	movq	%r14, %rsi
	call	ada__numerics__big_numbers__big_reals__Omultiply@PLT
.LVL258:
	.loc 2 22 27 discriminator 18 view .LVU260
	leaq	832(%rsp), %rcx
	leaq	864(%rsp), %rdx
	leaq	288(%rsp), %rdi
	movq	ada__numerics__big_numbers__big_reals__big_realFD@GOTPCREL(%rip), %rsi
	call	system__finalization_primitives__attach_object_to_master@PLT
.LVL259:
	.loc 2 22 20 is_stmt 1 discriminator 21 view .LVU261
	leaq	96(%rsp), %rdi
	leaq	288(%rsp), %rdx
	leaq	320(%rsp), %rsi
	call	ada__numerics__big_numbers__big_reals__Oadd__2@PLT
.LVL260:
.LEHE39:
	.loc 2 22 0 view .LVU262
	leaq	832(%rsp), %r10
.LEHB40:
	call	vector__dot__B108s___finalizer.1
.LVL261:
	.loc 2 22 0 is_stmt 0 view .LVU263
.LBE293:
.LBE292:
	.loc 1 29 40 is_stmt 1 discriminator 22 view .LVU264
	leaq	688(%rsp), %rcx
	leaq	496(%rsp), %rdx
	leaq	96(%rsp), %rdi
	movq	ada__numerics__big_numbers__big_reals__big_realFD@GOTPCREL(%rip), %rsi
	call	system__finalization_primitives__attach_object_to_master@PLT
.LVL262:
	jmp	.L113
.LVL263:
.L102:
.LBB295:
.LBB294:
	.loc 2 22 0 discriminator 23 view .LVU265
	movq	%rax, %rbx
.LVL264:
	.loc 2 22 0 is_stmt 0 discriminator 23 view .LVU266
	leaq	832(%rsp), %r10
	call	vector__dot__B108s___finalizer.1
.LVL265:
	jmp	.L92
.LVL266:
.L113:
	.loc 2 22 0 discriminator 23 view .LVU267
.LBE294:
.LBE295:
	.loc 1 29 32 is_stmt 1 discriminator 24 view .LVU268
	movq	$0, 528(%rsp)
	movq	$0, 536(%rsp)
	movq	$0, 544(%rsp)
.LVL267:
	.loc 1 29 32 is_stmt 0 discriminator 26 view .LVU269
	leaq	128(%rsp), %rdi
	leaq	96(%rsp), %rdx
	leaq	64(%rsp), %rsi
	call	ada__numerics__big_numbers__big_reals__Omultiply@PLT
.LVL268:
	.loc 1 29 32 discriminator 28 view .LVU270
	leaq	688(%rsp), %rcx
	leaq	528(%rsp), %rdx
	leaq	128(%rsp), %rdi
	movq	ada__numerics__big_numbers__big_reals__big_realFD@GOTPCREL(%rip), %rsi
	call	system__finalization_primitives__attach_object_to_master@PLT
.LVL269:
	.loc 1 29 10 is_stmt 1 discriminator 30 view .LVU271
	movq	$0, 560(%rsp)
	movq	$0, 568(%rsp)
	movq	$0, 576(%rsp)
.LVL270:
	.loc 1 29 10 is_stmt 0 discriminator 32 view .LVU272
	leaq	160(%rsp), %rdi
	leaq	128(%rsp), %rdx
	movq	%rsp, %rsi
	call	ada__numerics__big_numbers__big_reals__Oadd__2@PLT
.LVL271:
	.loc 1 29 10 discriminator 34 view .LVU273
	leaq	688(%rsp), %rcx
	leaq	560(%rsp), %rdx
	leaq	160(%rsp), %rdi
	movq	ada__numerics__big_numbers__big_reals__big_realFD@GOTPCREL(%rip), %rsi
	call	system__finalization_primitives__attach_object_to_master@PLT
.LVL272:
	.loc 1 30 14 is_stmt 1 discriminator 4 view .LVU274
	movq	$0, 592(%rsp)
	movq	$0, 600(%rsp)
	movq	$0, 608(%rsp)
.LVL273:
	.loc 1 30 14 is_stmt 0 discriminator 5 view .LVU275
	leaq	192(%rsp), %rdi
	movq	%r12, %rdx
	movq	%r12, %rsi
	call	ada__numerics__big_numbers__big_reals__Omultiply@PLT
.LVL274:
	.loc 1 30 14 discriminator 8 view .LVU276
	leaq	688(%rsp), %rcx
	leaq	592(%rsp), %rdx
	leaq	192(%rsp), %rdi
	movq	ada__numerics__big_numbers__big_reals__big_realFD@GOTPCREL(%rip), %rsi
	call	system__finalization_primitives__attach_object_to_master@PLT
.LVL275:
.LEHE40:
	.loc 1 30 26 is_stmt 1 discriminator 11 view .LVU277
	movq	$0, 624(%rsp)
	movq	$0, 632(%rsp)
	movq	$0, 640(%rsp)
.LVL276:
.LBB296:
.LBB297:
	.loc 2 21 4 discriminator 1 view .LVU278
	leaq	1072(%rsp), %rax
	movq	%rax, 944(%rsp)
.LVL277:
	.loc 2 22 20 view .LVU279
	movb	$1, 928(%rsp)
	movb	$0, 929(%rsp)
	movb	$0, 930(%rsp)
	movq	$0, 936(%rsp)
.LVL278:
	.loc 2 22 13 discriminator 3 view .LVU280
	movq	$0, 992(%rsp)
	movq	$0, 1000(%rsp)
	movq	$0, 1008(%rsp)
.LVL279:
	.loc 2 22 13 is_stmt 0 discriminator 6 view .LVU281
	leaq	320(%rsp), %rdi
	movq	%rbx, %rdx
	movq	%rbx, %rsi
.LEHB41:
	call	ada__numerics__big_numbers__big_reals__Omultiply@PLT
.LVL280:
	.loc 2 22 13 discriminator 9 view .LVU282
	leaq	928(%rsp), %rcx
	leaq	992(%rsp), %rdx
	leaq	320(%rsp), %rdi
	movq	ada__numerics__big_numbers__big_reals__big_realFD@GOTPCREL(%rip), %rsi
	call	system__finalization_primitives__attach_object_to_master@PLT
.LVL281:
	.loc 2 22 27 is_stmt 1 discriminator 12 view .LVU283
	movq	$0, 960(%rsp)
	movq	$0, 968(%rsp)
	movq	$0, 976(%rsp)
.LVL282:
	.loc 2 22 27 is_stmt 0 discriminator 15 view .LVU284
	leaq	288(%rsp), %rdi
	movq	%rbp, %rdx
	movq	%rbp, %rsi
	call	ada__numerics__big_numbers__big_reals__Omultiply@PLT
.LVL283:
	.loc 2 22 27 discriminator 18 view .LVU285
	leaq	928(%rsp), %rcx
	leaq	960(%rsp), %rdx
	leaq	288(%rsp), %rdi
	movq	ada__numerics__big_numbers__big_reals__big_realFD@GOTPCREL(%rip), %rsi
	call	system__finalization_primitives__attach_object_to_master@PLT
.LVL284:
	.loc 2 22 20 is_stmt 1 discriminator 21 view .LVU286
	leaq	224(%rsp), %rdi
	leaq	288(%rsp), %rdx
	leaq	320(%rsp), %rsi
	call	ada__numerics__big_numbers__big_reals__Oadd__2@PLT
.LVL285:
.LEHE41:
	.loc 2 22 0 view .LVU287
	leaq	928(%rsp), %r10
.LEHB42:
	call	vector__dot__B108s___finalizer.1
.LVL286:
	.loc 2 22 0 is_stmt 0 view .LVU288
.LBE297:
.LBE296:
	.loc 1 30 26 is_stmt 1 discriminator 17 view .LVU289
	leaq	688(%rsp), %rcx
	leaq	624(%rsp), %rdx
	leaq	224(%rsp), %rdi
	movq	ada__numerics__big_numbers__big_reals__big_realFD@GOTPCREL(%rip), %rsi
	call	system__finalization_primitives__attach_object_to_master@PLT
.LVL287:
	jmp	.L114
.LVL288:
.L103:
.LBB299:
.LBB298:
	.loc 2 22 0 discriminator 23 view .LVU290
	movq	%rax, %rbx
.LVL289:
	.loc 2 22 0 is_stmt 0 discriminator 23 view .LVU291
	leaq	928(%rsp), %r10
	call	vector__dot__B108s___finalizer.1
.LVL290:
	jmp	.L92
.LVL291:
.L114:
	.loc 2 22 0 discriminator 23 view .LVU292
.LBE298:
.LBE299:
	.loc 1 30 18 is_stmt 1 discriminator 20 view .LVU293
	movq	$0, 656(%rsp)
	movq	$0, 664(%rsp)
	movq	$0, 672(%rsp)
.LVL292:
	.loc 1 30 18 is_stmt 0 discriminator 23 view .LVU294
	leaq	320(%rsp), %rdi
	leaq	224(%rsp), %rdx
	leaq	192(%rsp), %rsi
	call	ada__numerics__big_numbers__big_reals__Omultiply@PLT
.LVL293:
	.loc 1 30 18 discriminator 26 view .LVU295
	leaq	688(%rsp), %rcx
	leaq	656(%rsp), %rdx
	leaq	320(%rsp), %rdi
	movq	ada__numerics__big_numbers__big_reals__big_realFD@GOTPCREL(%rip), %rsi
	call	system__finalization_primitives__attach_object_to_master@PLT
.LVL294:
	.loc 1 30 10 is_stmt 1 discriminator 29 view .LVU296
	leaq	320(%rsp), %rdx
	leaq	160(%rsp), %rsi
	movq	%r13, %rdi
	call	ada__numerics__big_numbers__big_reals__Oadd__2@PLT
.LVL295:
.LEHE42:
	jmp	.L115
.LVL296:
.L99:
	.loc 1 30 0 discriminator 31 view .LVU297
	movq	%rax, %rbx
.L92:
	leaq	688(%rsp), %r10
.LEHB43:
	call	collision_math__sq_dist_at_vec__B121s___finalizer.3
.LVL297:
	movq	%rbx, %rdi
	call	_Unwind_Resume@PLT
.LVL298:
.L115:
	.loc 1 30 0 is_stmt 0 view .LVU298
	leaq	688(%rsp), %r10
	call	collision_math__sq_dist_at_vec__B121s___finalizer.3
.LVL299:
.LBE282:
	.loc 1 26 4 is_stmt 1 view .LVU299
	movq	%r13, %rax
	addq	$1024, %rsp
	.cfi_def_cfa_offset 48
.LEHE43:
	popq	%rbx
	.cfi_def_cfa_offset 40
.LVL300:
	.loc 1 26 4 is_stmt 0 view .LVU300
	popq	%rbp
	.cfi_def_cfa_offset 32
.LVL301:
	.loc 1 26 4 view .LVU301
	popq	%r12
	.cfi_def_cfa_offset 24
.LVL302:
	.loc 1 26 4 view .LVU302
	popq	%r13
	.cfi_def_cfa_offset 16
.LVL303:
	.loc 1 26 4 view .LVU303
	popq	%r14
	.cfi_def_cfa_offset 8
.LVL304:
	.loc 1 26 4 view .LVU304
	ret
	.cfi_endproc
.LFE4:
	.section	.gcc_except_table.collision_math__sq_dist_at_vec,"a",@progbits
.LLSDA4:
	.byte	0xff
	.byte	0xff
	.byte	0x1
	.uleb128 .LLSDACSE4-.LLSDACSB4
.LLSDACSB4:
	.uleb128 .LEHB34-.LFB4
	.uleb128 .LEHE34-.LEHB34
	.uleb128 0
	.uleb128 0
	.uleb128 .LEHB35-.LFB4
	.uleb128 .LEHE35-.LEHB35
	.uleb128 .L100-.LFB4
	.uleb128 0
	.uleb128 .LEHB36-.LFB4
	.uleb128 .LEHE36-.LEHB36
	.uleb128 .L99-.LFB4
	.uleb128 0
	.uleb128 .LEHB37-.LFB4
	.uleb128 .LEHE37-.LEHB37
	.uleb128 .L101-.LFB4
	.uleb128 0
	.uleb128 .LEHB38-.LFB4
	.uleb128 .LEHE38-.LEHB38
	.uleb128 .L99-.LFB4
	.uleb128 0
	.uleb128 .LEHB39-.LFB4
	.uleb128 .LEHE39-.LEHB39
	.uleb128 .L102-.LFB4
	.uleb128 0
	.uleb128 .LEHB40-.LFB4
	.uleb128 .LEHE40-.LEHB40
	.uleb128 .L99-.LFB4
	.uleb128 0
	.uleb128 .LEHB41-.LFB4
	.uleb128 .LEHE41-.LEHB41
	.uleb128 .L103-.LFB4
	.uleb128 0
	.uleb128 .LEHB42-.LFB4
	.uleb128 .LEHE42-.LEHB42
	.uleb128 .L99-.LFB4
	.uleb128 0
	.uleb128 .LEHB43-.LFB4
	.uleb128 .LEHE43-.LEHB43
	.uleb128 0
	.uleb128 0
.LLSDACSE4:
	.section	.text.collision_math__sq_dist_at_vec
	.size	collision_math__sq_dist_at_vec, .-collision_math__sq_dist_at_vec
	.globl	collision_math_E
	.section	.data.collision_math_E,"aw"
	.align 2
	.type	collision_math_E, @object
	.size	collision_math_E, 2
collision_math_E:
	.zero	2
	.text
.Letext0:
	.file 4 "/home/vscode/.local/libexec/spark/lib/gcc/x86_64-pc-linux-gnu/15.1.0/adainclude/a-tags.ads"
	.file 5 "/home/vscode/.local/libexec/spark/lib/gcc/x86_64-pc-linux-gnu/15.1.0/adainclude/s-finroo.ads"
	.file 6 "/home/vscode/.local/libexec/spark/lib/gcc/x86_64-pc-linux-gnu/15.1.0/adainclude/a-finali.ads"
	.file 7 "/home/vscode/.local/libexec/spark/lib/gcc/x86_64-pc-linux-gnu/15.1.0/adainclude/a-nbnbin.ads"
	.file 8 "/home/vscode/.local/libexec/spark/lib/gcc/x86_64-pc-linux-gnu/15.1.0/adainclude/s-finpri.ads"
	.file 9 "<built-in>"
	.section	.data.rel.local.DW.ref.__gnat_others_value,"awG",@progbits,DW.ref.__gnat_others_value,comdat
	.align 8
	.type	DW.ref.__gnat_others_value, @object
	.size	DW.ref.__gnat_others_value, 8
DW.ref.__gnat_others_value:
	.quad	__gnat_others_value
	.hidden	DW.ref.__gnat_personality_v0
	.weak	DW.ref.__gnat_personality_v0
	.section	.data.rel.local.DW.ref.__gnat_personality_v0,"awG",@progbits,DW.ref.__gnat_personality_v0,comdat
	.align 8
	.type	DW.ref.__gnat_personality_v0, @object
	.size	DW.ref.__gnat_personality_v0, 8
DW.ref.__gnat_personality_v0:
	.quad	__gnat_personality_v0
	.globl	__gnat_personality_v0
	.ident	"GCC: (GNU) 15.1.0"
	.section	.note.GNU-stack,"",@progbits
