	.file	"main.adb"
	.text
.Ltext0:
	.file 0 "/workspaces/src/obj/development/gnatprove/data_representation" "/workspaces/src/src/main.adb"
	.section	.text.main__fc__to_big_real__B1252b___finalizer.28,"ax",@progbits
	.align 2
	.type	main__fc__to_big_real__B1252b___finalizer.28, @function
main__fc__to_big_real__B1252b___finalizer.28:
.LFB25:
	.cfi_startproc
	pushq	%rbx
	.cfi_def_cfa_offset 16
	.cfi_offset 3, -16
	movq	%r10, %rbx
	call	*system__soft_links__abort_defer(%rip)
	movq	%rbx, %rdi
	addq	$16, %rdi
	movq	ada__numerics__big_numbers__big_reals__big_realFD@GOTPCREL(%rip), %rsi
	call	system__finalization_primitives__finalize_object@PLT
	call	*system__soft_links__abort_undefer(%rip)
	popq	%rbx
	.cfi_def_cfa_offset 8
	ret
	.cfi_endproc
.LFE25:
	.size	main__fc__to_big_real__B1252b___finalizer.28, .-main__fc__to_big_real__B1252b___finalizer.28
	.section	.text.main__detect_bounces__B_2__B370b___finalizer.38,"ax",@progbits
	.align 2
	.type	main__detect_bounces__B_2__B370b___finalizer.38, @function
main__detect_bounces__B_2__B370b___finalizer.38:
.LFB95:
	.cfi_startproc
	pushq	%rbp
	.cfi_def_cfa_offset 16
	.cfi_offset 6, -16
	pushq	%rbx
	.cfi_def_cfa_offset 24
	.cfi_offset 3, -24
	subq	$8, %rsp
	.cfi_def_cfa_offset 32
	movq	%r10, %rbx
	call	*system__soft_links__abort_defer(%rip)
	movq	ada__numerics__big_numbers__big_reals__big_realFD@GOTPCREL(%rip), %rbp
	leaq	184(%rbx), %rdi
	movq	%rbp, %rsi
	call	system__finalization_primitives__finalize_object@PLT
	leaq	160(%rbx), %rdi
	movq	%rbp, %rsi
	call	system__finalization_primitives__finalize_object@PLT
	leaq	136(%rbx), %rdi
	movq	%rbp, %rsi
	call	system__finalization_primitives__finalize_object@PLT
	leaq	112(%rbx), %rdi
	movq	%rbp, %rsi
	call	system__finalization_primitives__finalize_object@PLT
	call	*system__soft_links__abort_undefer(%rip)
	addq	$8, %rsp
	.cfi_def_cfa_offset 24
	popq	%rbx
	.cfi_def_cfa_offset 16
	popq	%rbp
	.cfi_def_cfa_offset 8
	ret
	.cfi_endproc
.LFE95:
	.size	main__detect_bounces__B_2__B370b___finalizer.38, .-main__detect_bounces__B_2__B370b___finalizer.38
	.section	.text.main__detect_bounces__B_2__B403b___finalizer.39,"ax",@progbits
	.align 2
	.type	main__detect_bounces__B_2__B403b___finalizer.39, @function
main__detect_bounces__B_2__B403b___finalizer.39:
.LFB96:
	.cfi_startproc
	pushq	%rbp
	.cfi_def_cfa_offset 16
	.cfi_offset 6, -16
	pushq	%rbx
	.cfi_def_cfa_offset 24
	.cfi_offset 3, -24
	subq	$8, %rsp
	.cfi_def_cfa_offset 32
	movq	%r10, %rbx
	call	*system__soft_links__abort_defer(%rip)
	movq	ada__numerics__big_numbers__big_reals__big_realFD@GOTPCREL(%rip), %rbp
	leaq	88(%rbx), %rdi
	movq	%rbp, %rsi
	call	system__finalization_primitives__finalize_object@PLT
	leaq	64(%rbx), %rdi
	movq	%rbp, %rsi
	call	system__finalization_primitives__finalize_object@PLT
	leaq	40(%rbx), %rdi
	movq	%rbp, %rsi
	call	system__finalization_primitives__finalize_object@PLT
	leaq	16(%rbx), %rdi
	movq	%rbp, %rsi
	call	system__finalization_primitives__finalize_object@PLT
	call	*system__soft_links__abort_undefer(%rip)
	addq	$8, %rsp
	.cfi_def_cfa_offset 24
	popq	%rbx
	.cfi_def_cfa_offset 16
	popq	%rbp
	.cfi_def_cfa_offset 8
	ret
	.cfi_endproc
.LFE96:
	.size	main__detect_bounces__B_2__B403b___finalizer.39, .-main__detect_bounces__B_2__B403b___finalizer.39
	.section	.text.vector__sub__B50s__R58s___finalizer,"ax",@progbits
	.align 2
	.type	vector__sub__B50s__R58s___finalizer, @function
vector__sub__B50s__R58s___finalizer:
.LFB129:
	.cfi_startproc
	pushq	%rbx
	.cfi_def_cfa_offset 16
	.cfi_offset 3, -16
	movq	%r10, %rbx
	call	*system__soft_links__abort_defer(%rip)
	movq	%rbx, %rdi
	addq	$16, %rdi
	movq	vector__vectorFD@GOTPCREL(%rip), %rsi
	call	system__finalization_primitives__finalize_object@PLT
	call	*system__soft_links__abort_undefer(%rip)
	popq	%rbx
	.cfi_def_cfa_offset 8
	ret
	.cfi_endproc
.LFE129:
	.size	vector__sub__B50s__R58s___finalizer, .-vector__sub__B50s__R58s___finalizer
	.section	.text.collision_math__will_collide_vec__B8s___finalizer.67,"ax",@progbits
	.align 2
	.type	collision_math__will_collide_vec__B8s___finalizer.67, @function
collision_math__will_collide_vec__B8s___finalizer.67:
.LFB143:
	.cfi_startproc
	pushq	%rbp
	.cfi_def_cfa_offset 16
	.cfi_offset 6, -16
	pushq	%rbx
	.cfi_def_cfa_offset 24
	.cfi_offset 3, -24
	subq	$8, %rsp
	.cfi_def_cfa_offset 32
	movq	%r10, %rbx
	call	*system__soft_links__abort_defer(%rip)
	movq	ada__numerics__big_numbers__big_reals__big_realFD@GOTPCREL(%rip), %rbp
	leaq	360(%rbx), %rdi
	movq	%rbp, %rsi
	call	system__finalization_primitives__finalize_object@PLT
	leaq	336(%rbx), %rdi
	movq	%rbp, %rsi
	call	system__finalization_primitives__finalize_object@PLT
	leaq	312(%rbx), %rdi
	movq	%rbp, %rsi
	call	system__finalization_primitives__finalize_object@PLT
	leaq	288(%rbx), %rdi
	movq	%rbp, %rsi
	call	system__finalization_primitives__finalize_object@PLT
	leaq	264(%rbx), %rdi
	movq	%rbp, %rsi
	call	system__finalization_primitives__finalize_object@PLT
	leaq	240(%rbx), %rdi
	movq	%rbp, %rsi
	call	system__finalization_primitives__finalize_object@PLT
	leaq	216(%rbx), %rdi
	movq	%rbp, %rsi
	call	system__finalization_primitives__finalize_object@PLT
	leaq	192(%rbx), %rdi
	movq	%rbp, %rsi
	call	system__finalization_primitives__finalize_object@PLT
	leaq	168(%rbx), %rdi
	movq	%rbp, %rsi
	call	system__finalization_primitives__finalize_object@PLT
	leaq	144(%rbx), %rdi
	movq	%rbp, %rsi
	call	system__finalization_primitives__finalize_object@PLT
	leaq	120(%rbx), %rdi
	movq	%rbp, %rsi
	call	system__finalization_primitives__finalize_object@PLT
	leaq	96(%rbx), %rdi
	movq	ada__numerics__big_numbers__big_integers__big_integerFD@GOTPCREL(%rip), %rsi
	call	system__finalization_primitives__finalize_object@PLT
	leaq	72(%rbx), %rdi
	movq	%rbp, %rsi
	call	system__finalization_primitives__finalize_object@PLT
	leaq	48(%rbx), %rdi
	movq	%rbp, %rsi
	call	system__finalization_primitives__finalize_object@PLT
	leaq	24(%rbx), %rdi
	movq	ada__numerics__big_numbers__big_integers__big_integerFD@GOTPCREL(%rip), %rsi
	call	system__finalization_primitives__finalize_object@PLT
	movq	%rbp, %rsi
	movq	%rbx, %rdi
	call	system__finalization_primitives__finalize_object@PLT
	call	*system__soft_links__abort_undefer(%rip)
	addq	$8, %rsp
	.cfi_def_cfa_offset 24
	popq	%rbx
	.cfi_def_cfa_offset 16
	popq	%rbp
	.cfi_def_cfa_offset 8
	ret
	.cfi_endproc
.LFE143:
	.size	collision_math__will_collide_vec__B8s___finalizer.67, .-collision_math__will_collide_vec__B8s___finalizer.67
	.section	.text.main__Tinitial_positionsBSA.48,"ax",@progbits
	.align 2
	.type	main__Tinitial_positionsBSA.48, @function
main__Tinitial_positionsBSA.48:
.LFB81:
	.cfi_startproc
	.cfi_personality 0x9b,DW.ref.__gnat_personality_v0
	.cfi_lsda 0x1b,.LLSDA81
	pushq	%r15
	.cfi_def_cfa_offset 16
	.cfi_offset 15, -16
	pushq	%r14
	.cfi_def_cfa_offset 24
	.cfi_offset 14, -24
	pushq	%r13
	.cfi_def_cfa_offset 32
	.cfi_offset 13, -32
	pushq	%r12
	.cfi_def_cfa_offset 40
	.cfi_offset 12, -40
	pushq	%rbp
	.cfi_def_cfa_offset 48
	.cfi_offset 6, -48
	pushq	%rbx
	.cfi_def_cfa_offset 56
	.cfi_offset 3, -56
.LEHB0:
	subq	$712, %rsp
	.cfi_def_cfa_offset 768
.LEHE0:
	movq	%rdi, %r14
	movq	%rsi, 24(%rsp)
	movq	%rcx, 40(%rsp)
	movl	%r8d, 56(%rsp)
	movl	%r9d, 60(%rsp)
	movl	768(%rsp), %r13d
	movl	784(%rsp), %eax
	movb	%al, 39(%rsp)
	movslq	(%rcx), %rdi
	movq	%rdi, 48(%rsp)
	movslq	(%rsi), %rdi
	movq	%rdi, 16(%rsp)
	cmpl	%r8d, %r9d
	jl	.L11
	movq	%rdx, %r15
	testb	%al, %al
	je	.L22
	movl	776(%rsp), %r13d
	movl	%r9d, %r12d
	jmp	.L14
.L22:
	movl	56(%rsp), %r12d
	jmp	.L14
.L27:
	movslq	%r12d, %rbx
	movslq	%r13d, %rbp
	movq	24(%rsp), %rax
	movslq	(%rax), %rax
	movq	%rbx, %rdx
	subq	%rax, %rdx
	salq	$6, %rdx
	addq	%r14, %rdx
	movq	40(%rsp), %rax
	movslq	(%rax), %rcx
	movq	%rbp, %rax
	subq	%rcx, %rax
	salq	$6, %rax
	addq	%r15, %rax
	cmpq	%rax, %rdx
	je	.L15
	movq	%rbx, %rax
	movq	16(%rsp), %rsi
	subq	%rsi, %rax
	salq	$6, %rax
	addq	%r14, %rax
	movl	$1, %esi
	movq	%rax, 8(%rsp)
	movq	%rax, %rdi
.LEHB1:
	call	spatial__positionDF@PLT
	movq	16(%rsp), %rsi
	subq	%rsi, %rbx
	salq	$6, %rbx
	addq	%r14, %rbx
	movq	48(%rsp), %rcx
	subq	%rcx, %rbp
	salq	$6, %rbp
	addq	%r15, %rbp
	movq	0(%rbp), %rax
	movq	8(%rbp), %rdx
	movq	%rax, (%rbx)
	movq	%rdx, 8(%rbx)
	movq	16(%rbp), %rax
	movq	24(%rbp), %rdx
	movq	%rax, 16(%rbx)
	movq	%rdx, 24(%rbx)
	movq	32(%rbp), %rax
	movq	40(%rbp), %rdx
	movq	%rax, 32(%rbx)
	movq	%rdx, 40(%rbx)
	movq	48(%rbp), %rax
	movq	56(%rbp), %rdx
	movq	%rax, 48(%rbx)
	movq	%rdx, 56(%rbx)
	movl	$1, %esi
	movq	8(%rsp), %rdi
	call	spatial__positionDA@PLT
.LEHE1:
.L15:
.LEHB2:
	call	system__standard_library__abort_undefer_direct@PLT
.LEHE2:
	cmpb	$0, 39(%rsp)
	je	.L16
	movl	56(%rsp), %eax
	cmpl	%eax, %r12d
	je	.L11
	subl	$1, %r12d
	subl	$1, %r13d
.L14:
.LEHB3:
	call	*system__soft_links__abort_defer(%rip)
.LEHE3:
	jmp	.L27
.L16:
	movl	60(%rsp), %eax
	cmpl	%eax, %r12d
	je	.L11
	addl	$1, %r12d
	addl	$1, %r13d
	jmp	.L14
.L24:
	movq	%rax, %rbp
	cmpq	$1, %rdx
	je	.L19
	movq	%rax, %rbx
.L20:
.LEHB4:
	call	system__standard_library__abort_undefer_direct@PLT
	movq	%rbx, %rdi
	call	_Unwind_Resume@PLT
.LEHE4:
.L19:
	movq	%rax, %rdi
	call	__gnat_begin_handler_v1@PLT
	movq	%rax, %r12
	leaq	64(%rsp), %rdi
	movq	%rbp, %rsi
.LEHB5:
	call	__gnat_set_exception_parameter@PLT
	leaq	64(%rsp), %rdi
	call	__gnat_raise_from_controlled_operation@PLT
.LEHE5:
.L25:
	movq	%rax, %rbx
	movq	%rax, %rdx
	movq	%r12, %rsi
	movq	%rbp, %rdi
.LEHB6:
	call	__gnat_end_handler_v1@PLT
.LEHE6:
	jmp	.L20
.L23:
	movq	%rax, %rbx
	jmp	.L20
.L11:
.LEHB7:
	addq	$712, %rsp
	.cfi_def_cfa_offset 56
.LEHE7:
	popq	%rbx
	.cfi_def_cfa_offset 48
	popq	%rbp
	.cfi_def_cfa_offset 40
	popq	%r12
	.cfi_def_cfa_offset 32
	popq	%r13
	.cfi_def_cfa_offset 24
	popq	%r14
	.cfi_def_cfa_offset 16
	popq	%r15
	.cfi_def_cfa_offset 8
	ret
	.cfi_endproc
.LFE81:
	.section	.gcc_except_table.main__Tinitial_positionsBSA.48,"a",@progbits
	.align 4
.LLSDA81:
	.byte	0xff
	.byte	0x9b
	.uleb128 .LLSDATT81-.LLSDATTD81
.LLSDATTD81:
	.byte	0x1
	.uleb128 .LLSDACSE81-.LLSDACSB81
.LLSDACSB81:
	.uleb128 .LEHB0-.LFB81
	.uleb128 .LEHE0-.LEHB0
	.uleb128 0
	.uleb128 0
	.uleb128 .LEHB1-.LFB81
	.uleb128 .LEHE1-.LEHB1
	.uleb128 .L24-.LFB81
	.uleb128 0x3
	.uleb128 .LEHB2-.LFB81
	.uleb128 .LEHE2-.LEHB2
	.uleb128 0
	.uleb128 0
	.uleb128 .LEHB3-.LFB81
	.uleb128 .LEHE3-.LEHB3
	.uleb128 .L23-.LFB81
	.uleb128 0
	.uleb128 .LEHB4-.LFB81
	.uleb128 .LEHE4-.LEHB4
	.uleb128 0
	.uleb128 0
	.uleb128 .LEHB5-.LFB81
	.uleb128 .LEHE5-.LEHB5
	.uleb128 .L25-.LFB81
	.uleb128 0
	.uleb128 .LEHB6-.LFB81
	.uleb128 .LEHE6-.LEHB6
	.uleb128 .L23-.LFB81
	.uleb128 0
	.uleb128 .LEHB7-.LFB81
	.uleb128 .LEHE7-.LEHB7
	.uleb128 0
	.uleb128 0
.LLSDACSE81:
	.byte	0
	.byte	0
	.byte	0x1
	.byte	0x7d
	.align 4
	.long	DW.ref.__gnat_others_value-.
.LLSDATT81:
	.section	.text.main__Tinitial_positionsBSA.48
	.size	main__Tinitial_positionsBSA.48, .-main__Tinitial_positionsBSA.48
	.section	.text.main__Tinitial_velocitiesBSA.50,"ax",@progbits
	.align 2
	.type	main__Tinitial_velocitiesBSA.50, @function
main__Tinitial_velocitiesBSA.50:
.LFB86:
	.cfi_startproc
	.cfi_personality 0x9b,DW.ref.__gnat_personality_v0
	.cfi_lsda 0x1b,.LLSDA86
	pushq	%r15
	.cfi_def_cfa_offset 16
	.cfi_offset 15, -16
	pushq	%r14
	.cfi_def_cfa_offset 24
	.cfi_offset 14, -24
	pushq	%r13
	.cfi_def_cfa_offset 32
	.cfi_offset 13, -32
	pushq	%r12
	.cfi_def_cfa_offset 40
	.cfi_offset 12, -40
	pushq	%rbp
	.cfi_def_cfa_offset 48
	.cfi_offset 6, -48
	pushq	%rbx
	.cfi_def_cfa_offset 56
	.cfi_offset 3, -56
.LEHB8:
	subq	$712, %rsp
	.cfi_def_cfa_offset 768
.LEHE8:
	movq	%rdi, %r14
	movq	%rsi, 24(%rsp)
	movq	%rcx, 40(%rsp)
	movl	%r8d, 56(%rsp)
	movl	%r9d, 60(%rsp)
	movl	768(%rsp), %r13d
	movl	784(%rsp), %eax
	movb	%al, 39(%rsp)
	movslq	(%rcx), %rdi
	movq	%rdi, 48(%rsp)
	movslq	(%rsi), %rdi
	movq	%rdi, 16(%rsp)
	cmpl	%r8d, %r9d
	jl	.L28
	movq	%rdx, %r15
	testb	%al, %al
	je	.L39
	movl	776(%rsp), %r13d
	movl	%r9d, %r12d
	jmp	.L31
.L39:
	movl	56(%rsp), %r12d
	jmp	.L31
.L44:
	movslq	%r12d, %rbx
	movslq	%r13d, %rbp
	movq	24(%rsp), %rax
	movslq	(%rax), %rax
	movq	%rbx, %rdx
	subq	%rax, %rdx
	salq	$6, %rdx
	addq	%r14, %rdx
	movq	40(%rsp), %rax
	movslq	(%rax), %rcx
	movq	%rbp, %rax
	subq	%rcx, %rax
	salq	$6, %rax
	addq	%r15, %rax
	cmpq	%rax, %rdx
	je	.L32
	movq	%rbx, %rax
	movq	16(%rsp), %rsi
	subq	%rsi, %rax
	salq	$6, %rax
	addq	%r14, %rax
	movl	$1, %esi
	movq	%rax, 8(%rsp)
	movq	%rax, %rdi
.LEHB9:
	call	spatial__velocityDF@PLT
	movq	16(%rsp), %rsi
	subq	%rsi, %rbx
	salq	$6, %rbx
	addq	%r14, %rbx
	movq	48(%rsp), %rcx
	subq	%rcx, %rbp
	salq	$6, %rbp
	addq	%r15, %rbp
	movq	0(%rbp), %rax
	movq	8(%rbp), %rdx
	movq	%rax, (%rbx)
	movq	%rdx, 8(%rbx)
	movq	16(%rbp), %rax
	movq	24(%rbp), %rdx
	movq	%rax, 16(%rbx)
	movq	%rdx, 24(%rbx)
	movq	32(%rbp), %rax
	movq	40(%rbp), %rdx
	movq	%rax, 32(%rbx)
	movq	%rdx, 40(%rbx)
	movq	48(%rbp), %rax
	movq	56(%rbp), %rdx
	movq	%rax, 48(%rbx)
	movq	%rdx, 56(%rbx)
	movl	$1, %esi
	movq	8(%rsp), %rdi
	call	spatial__velocityDA@PLT
.LEHE9:
.L32:
.LEHB10:
	call	system__standard_library__abort_undefer_direct@PLT
.LEHE10:
	cmpb	$0, 39(%rsp)
	je	.L33
	movl	56(%rsp), %eax
	cmpl	%eax, %r12d
	je	.L28
	subl	$1, %r12d
	subl	$1, %r13d
.L31:
.LEHB11:
	call	*system__soft_links__abort_defer(%rip)
.LEHE11:
	jmp	.L44
.L33:
	movl	60(%rsp), %eax
	cmpl	%eax, %r12d
	je	.L28
	addl	$1, %r12d
	addl	$1, %r13d
	jmp	.L31
.L41:
	movq	%rax, %rbp
	cmpq	$1, %rdx
	je	.L36
	movq	%rax, %rbx
.L37:
.LEHB12:
	call	system__standard_library__abort_undefer_direct@PLT
	movq	%rbx, %rdi
	call	_Unwind_Resume@PLT
.LEHE12:
.L36:
	movq	%rax, %rdi
	call	__gnat_begin_handler_v1@PLT
	movq	%rax, %r12
	leaq	64(%rsp), %rdi
	movq	%rbp, %rsi
.LEHB13:
	call	__gnat_set_exception_parameter@PLT
	leaq	64(%rsp), %rdi
	call	__gnat_raise_from_controlled_operation@PLT
.LEHE13:
.L42:
	movq	%rax, %rbx
	movq	%rax, %rdx
	movq	%r12, %rsi
	movq	%rbp, %rdi
.LEHB14:
	call	__gnat_end_handler_v1@PLT
.LEHE14:
	jmp	.L37
.L40:
	movq	%rax, %rbx
	jmp	.L37
.L28:
.LEHB15:
	addq	$712, %rsp
	.cfi_def_cfa_offset 56
.LEHE15:
	popq	%rbx
	.cfi_def_cfa_offset 48
	popq	%rbp
	.cfi_def_cfa_offset 40
	popq	%r12
	.cfi_def_cfa_offset 32
	popq	%r13
	.cfi_def_cfa_offset 24
	popq	%r14
	.cfi_def_cfa_offset 16
	popq	%r15
	.cfi_def_cfa_offset 8
	ret
	.cfi_endproc
.LFE86:
	.section	.gcc_except_table.main__Tinitial_velocitiesBSA.50,"a",@progbits
	.align 4
.LLSDA86:
	.byte	0xff
	.byte	0x9b
	.uleb128 .LLSDATT86-.LLSDATTD86
.LLSDATTD86:
	.byte	0x1
	.uleb128 .LLSDACSE86-.LLSDACSB86
.LLSDACSB86:
	.uleb128 .LEHB8-.LFB86
	.uleb128 .LEHE8-.LEHB8
	.uleb128 0
	.uleb128 0
	.uleb128 .LEHB9-.LFB86
	.uleb128 .LEHE9-.LEHB9
	.uleb128 .L41-.LFB86
	.uleb128 0x3
	.uleb128 .LEHB10-.LFB86
	.uleb128 .LEHE10-.LEHB10
	.uleb128 0
	.uleb128 0
	.uleb128 .LEHB11-.LFB86
	.uleb128 .LEHE11-.LEHB11
	.uleb128 .L40-.LFB86
	.uleb128 0
	.uleb128 .LEHB12-.LFB86
	.uleb128 .LEHE12-.LEHB12
	.uleb128 0
	.uleb128 0
	.uleb128 .LEHB13-.LFB86
	.uleb128 .LEHE13-.LEHB13
	.uleb128 .L42-.LFB86
	.uleb128 0
	.uleb128 .LEHB14-.LFB86
	.uleb128 .LEHE14-.LEHB14
	.uleb128 .L40-.LFB86
	.uleb128 0
	.uleb128 .LEHB15-.LFB86
	.uleb128 .LEHE15-.LEHB15
	.uleb128 0
	.uleb128 0
.LLSDACSE86:
	.byte	0
	.byte	0
	.byte	0x1
	.byte	0x7d
	.align 4
	.long	DW.ref.__gnat_others_value-.
.LLSDATT86:
	.section	.text.main__Tinitial_velocitiesBSA.50
	.size	main__Tinitial_velocitiesBSA.50, .-main__Tinitial_velocitiesBSA.50
	.section	.rodata
.LC65:
	.ascii	"main.adb"
	.zero	1
	.section	.text.main__Tinitial_radiiBDF.1,"ax",@progbits
	.align 2
	.type	main__Tinitial_radiiBDF.1, @function
main__Tinitial_radiiBDF.1:
.LFB89:
	.cfi_startproc
	.cfi_personality 0x9b,DW.ref.__gnat_personality_v0
	.cfi_lsda 0x1b,.LLSDA89
	pushq	%r15
	.cfi_def_cfa_offset 16
	.cfi_offset 15, -16
	pushq	%r14
	.cfi_def_cfa_offset 24
	.cfi_offset 14, -24
	pushq	%r13
	.cfi_def_cfa_offset 32
	.cfi_offset 13, -32
	pushq	%r12
	.cfi_def_cfa_offset 40
	.cfi_offset 12, -40
	pushq	%rbp
	.cfi_def_cfa_offset 48
	.cfi_offset 6, -48
	pushq	%rbx
	.cfi_def_cfa_offset 56
	.cfi_offset 3, -56
.LEHB16:
	subq	$8, %rsp
	.cfi_def_cfa_offset 64
	movq	%rdi, %r12
	movq	%rsi, %rbp
	movslq	(%rsi), %r13
	call	ada__exceptions__triggered_by_abort@PLT
	movl	%eax, %r15d
	movl	4(%rbp), %ebx
	movl	$0, %r14d
	jmp	.L47
.L46:
	movl	%r15d, %eax
	xorl	$1, %eax
	testb	%al, %r14b
	jne	.L54
	addq	$8, %rsp
	.cfi_remember_state
	.cfi_def_cfa_offset 56
	popq	%rbx
	.cfi_def_cfa_offset 48
	popq	%rbp
	.cfi_def_cfa_offset 40
	popq	%r12
	.cfi_def_cfa_offset 32
	popq	%r13
	.cfi_def_cfa_offset 24
	popq	%r14
	.cfi_def_cfa_offset 16
	popq	%r15
	.cfi_def_cfa_offset 8
	ret
.L54:
	.cfi_restore_state
	movl	$143, %esi
	leaq	.LC65(%rip), %rdi
	call	__gnat_rcheck_PE_Finalize_Raised_Exception@PLT
.L52:
	movq	%rax, %rdi
	cmpq	$1, %rdx
	je	.L50
	call	_Unwind_Resume@PLT
.L50:
	movq	%rax, %r14
	call	__gnat_begin_handler_v1@PLT
	movq	%rax, %rsi
	movl	$0, %edx
	movq	%r14, %rdi
	call	__gnat_end_handler_v1@PLT
.LEHE16:
	movl	$1, %r14d
.L51:
	subl	$1, %ebx
.L47:
	cmpl	%ebx, 0(%rbp)
	jg	.L46
	movslq	%ebx, %rdi
	subq	%r13, %rdi
	salq	$5, %rdi
	addq	%r12, %rdi
	movl	$1, %esi
.LEHB17:
	call	ada__numerics__big_numbers__big_reals__big_realDF@PLT
.LEHE17:
	jmp	.L51
	.cfi_endproc
.LFE89:
	.section	.gcc_except_table.main__Tinitial_radiiBDF.1,"a",@progbits
	.align 4
.LLSDA89:
	.byte	0xff
	.byte	0x9b
	.uleb128 .LLSDATT89-.LLSDATTD89
.LLSDATTD89:
	.byte	0x1
	.uleb128 .LLSDACSE89-.LLSDACSB89
.LLSDACSB89:
	.uleb128 .LEHB16-.LFB89
	.uleb128 .LEHE16-.LEHB16
	.uleb128 0
	.uleb128 0
	.uleb128 .LEHB17-.LFB89
	.uleb128 .LEHE17-.LEHB17
	.uleb128 .L52-.LFB89
	.uleb128 0x1
.LLSDACSE89:
	.byte	0x1
	.byte	0
	.align 4
	.long	DW.ref.__gnat_others_value-.
.LLSDATT89:
	.section	.text.main__Tinitial_radiiBDF.1
	.size	main__Tinitial_radiiBDF.1, .-main__Tinitial_radiiBDF.1
	.section	.text.main__Tinitial_radiiBFD.0,"ax",@progbits
	.align 2
	.type	main__Tinitial_radiiBFD.0, @function
main__Tinitial_radiiBFD.0:
.LFB90:
	.cfi_startproc
	subq	$8, %rsp
	.cfi_def_cfa_offset 16
	leaq	8(%rdi), %rax
	movq	%rdi, %rdx
	movq	%rax, %rdi
	movq	%rdx, %rsi
	movl	$1, %edx
	call	main__Tinitial_radiiBDF.1
	addq	$8, %rsp
	.cfi_def_cfa_offset 8
	ret
	.cfi_endproc
.LFE90:
	.size	main__Tinitial_radiiBFD.0, .-main__Tinitial_radiiBFD.0
	.section	.text.main__Tinitial_velocitiesBDF.3,"ax",@progbits
	.align 2
	.type	main__Tinitial_velocitiesBDF.3, @function
main__Tinitial_velocitiesBDF.3:
.LFB84:
	.cfi_startproc
	.cfi_personality 0x9b,DW.ref.__gnat_personality_v0
	.cfi_lsda 0x1b,.LLSDA84
	pushq	%r15
	.cfi_def_cfa_offset 16
	.cfi_offset 15, -16
	pushq	%r14
	.cfi_def_cfa_offset 24
	.cfi_offset 14, -24
	pushq	%r13
	.cfi_def_cfa_offset 32
	.cfi_offset 13, -32
	pushq	%r12
	.cfi_def_cfa_offset 40
	.cfi_offset 12, -40
	pushq	%rbp
	.cfi_def_cfa_offset 48
	.cfi_offset 6, -48
	pushq	%rbx
	.cfi_def_cfa_offset 56
	.cfi_offset 3, -56
.LEHB18:
	subq	$8, %rsp
	.cfi_def_cfa_offset 64
	movq	%rdi, %r12
	movq	%rsi, %rbp
	movslq	(%rsi), %r13
	call	ada__exceptions__triggered_by_abort@PLT
	movl	%eax, %r15d
	movl	4(%rbp), %ebx
	movl	$0, %r14d
	jmp	.L59
.L58:
	movl	%r15d, %eax
	xorl	$1, %eax
	testb	%al, %r14b
	jne	.L66
	addq	$8, %rsp
	.cfi_remember_state
	.cfi_def_cfa_offset 56
	popq	%rbx
	.cfi_def_cfa_offset 48
	popq	%rbp
	.cfi_def_cfa_offset 40
	popq	%r12
	.cfi_def_cfa_offset 32
	popq	%r13
	.cfi_def_cfa_offset 24
	popq	%r14
	.cfi_def_cfa_offset 16
	popq	%r15
	.cfi_def_cfa_offset 8
	ret
.L66:
	.cfi_restore_state
	movl	$137, %esi
	leaq	.LC65(%rip), %rdi
	call	__gnat_rcheck_PE_Finalize_Raised_Exception@PLT
.L64:
	movq	%rax, %rdi
	cmpq	$1, %rdx
	je	.L62
	call	_Unwind_Resume@PLT
.L62:
	movq	%rax, %r14
	call	__gnat_begin_handler_v1@PLT
	movq	%rax, %rsi
	movl	$0, %edx
	movq	%r14, %rdi
	call	__gnat_end_handler_v1@PLT
.LEHE18:
	movl	$1, %r14d
.L63:
	subl	$1, %ebx
.L59:
	cmpl	%ebx, 0(%rbp)
	jg	.L58
	movslq	%ebx, %rdi
	subq	%r13, %rdi
	salq	$6, %rdi
	addq	%r12, %rdi
	movl	$1, %esi
.LEHB19:
	call	spatial__velocityDF@PLT
.LEHE19:
	jmp	.L63
	.cfi_endproc
.LFE84:
	.section	.gcc_except_table.main__Tinitial_velocitiesBDF.3,"a",@progbits
	.align 4
.LLSDA84:
	.byte	0xff
	.byte	0x9b
	.uleb128 .LLSDATT84-.LLSDATTD84
.LLSDATTD84:
	.byte	0x1
	.uleb128 .LLSDACSE84-.LLSDACSB84
.LLSDACSB84:
	.uleb128 .LEHB18-.LFB84
	.uleb128 .LEHE18-.LEHB18
	.uleb128 0
	.uleb128 0
	.uleb128 .LEHB19-.LFB84
	.uleb128 .LEHE19-.LEHB19
	.uleb128 .L64-.LFB84
	.uleb128 0x1
.LLSDACSE84:
	.byte	0x1
	.byte	0
	.align 4
	.long	DW.ref.__gnat_others_value-.
.LLSDATT84:
	.section	.text.main__Tinitial_velocitiesBDF.3
	.size	main__Tinitial_velocitiesBDF.3, .-main__Tinitial_velocitiesBDF.3
	.section	.text.main__Tinitial_velocitiesBFD.2,"ax",@progbits
	.align 2
	.type	main__Tinitial_velocitiesBFD.2, @function
main__Tinitial_velocitiesBFD.2:
.LFB85:
	.cfi_startproc
	subq	$8, %rsp
	.cfi_def_cfa_offset 16
	leaq	8(%rdi), %rax
	movq	%rdi, %rdx
	movq	%rax, %rdi
	movq	%rdx, %rsi
	movl	$1, %edx
	call	main__Tinitial_velocitiesBDF.3
	addq	$8, %rsp
	.cfi_def_cfa_offset 8
	ret
	.cfi_endproc
.LFE85:
	.size	main__Tinitial_velocitiesBFD.2, .-main__Tinitial_velocitiesBFD.2
	.section	.text.main__Tinitial_positionsBDF.5,"ax",@progbits
	.align 2
	.type	main__Tinitial_positionsBDF.5, @function
main__Tinitial_positionsBDF.5:
.LFB79:
	.cfi_startproc
	.cfi_personality 0x9b,DW.ref.__gnat_personality_v0
	.cfi_lsda 0x1b,.LLSDA79
	pushq	%r15
	.cfi_def_cfa_offset 16
	.cfi_offset 15, -16
	pushq	%r14
	.cfi_def_cfa_offset 24
	.cfi_offset 14, -24
	pushq	%r13
	.cfi_def_cfa_offset 32
	.cfi_offset 13, -32
	pushq	%r12
	.cfi_def_cfa_offset 40
	.cfi_offset 12, -40
	pushq	%rbp
	.cfi_def_cfa_offset 48
	.cfi_offset 6, -48
	pushq	%rbx
	.cfi_def_cfa_offset 56
	.cfi_offset 3, -56
.LEHB20:
	subq	$8, %rsp
	.cfi_def_cfa_offset 64
	movq	%rdi, %r12
	movq	%rsi, %rbp
	movslq	(%rsi), %r13
	call	ada__exceptions__triggered_by_abort@PLT
	movl	%eax, %r15d
	movl	4(%rbp), %ebx
	movl	$0, %r14d
	jmp	.L71
.L70:
	movl	%r15d, %eax
	xorl	$1, %eax
	testb	%al, %r14b
	jne	.L78
	addq	$8, %rsp
	.cfi_remember_state
	.cfi_def_cfa_offset 56
	popq	%rbx
	.cfi_def_cfa_offset 48
	popq	%rbp
	.cfi_def_cfa_offset 40
	popq	%r12
	.cfi_def_cfa_offset 32
	popq	%r13
	.cfi_def_cfa_offset 24
	popq	%r14
	.cfi_def_cfa_offset 16
	popq	%r15
	.cfi_def_cfa_offset 8
	ret
.L78:
	.cfi_restore_state
	movl	$131, %esi
	leaq	.LC65(%rip), %rdi
	call	__gnat_rcheck_PE_Finalize_Raised_Exception@PLT
.L76:
	movq	%rax, %rdi
	cmpq	$1, %rdx
	je	.L74
	call	_Unwind_Resume@PLT
.L74:
	movq	%rax, %r14
	call	__gnat_begin_handler_v1@PLT
	movq	%rax, %rsi
	movl	$0, %edx
	movq	%r14, %rdi
	call	__gnat_end_handler_v1@PLT
.LEHE20:
	movl	$1, %r14d
.L75:
	subl	$1, %ebx
.L71:
	cmpl	%ebx, 0(%rbp)
	jg	.L70
	movslq	%ebx, %rdi
	subq	%r13, %rdi
	salq	$6, %rdi
	addq	%r12, %rdi
	movl	$1, %esi
.LEHB21:
	call	spatial__positionDF@PLT
.LEHE21:
	jmp	.L75
	.cfi_endproc
.LFE79:
	.section	.gcc_except_table.main__Tinitial_positionsBDF.5,"a",@progbits
	.align 4
.LLSDA79:
	.byte	0xff
	.byte	0x9b
	.uleb128 .LLSDATT79-.LLSDATTD79
.LLSDATTD79:
	.byte	0x1
	.uleb128 .LLSDACSE79-.LLSDACSB79
.LLSDACSB79:
	.uleb128 .LEHB20-.LFB79
	.uleb128 .LEHE20-.LEHB20
	.uleb128 0
	.uleb128 0
	.uleb128 .LEHB21-.LFB79
	.uleb128 .LEHE21-.LEHB21
	.uleb128 .L76-.LFB79
	.uleb128 0x1
.LLSDACSE79:
	.byte	0x1
	.byte	0
	.align 4
	.long	DW.ref.__gnat_others_value-.
.LLSDATT79:
	.section	.text.main__Tinitial_positionsBDF.5
	.size	main__Tinitial_positionsBDF.5, .-main__Tinitial_positionsBDF.5
	.section	.text.main__Tinitial_positionsBFD.4,"ax",@progbits
	.align 2
	.type	main__Tinitial_positionsBFD.4, @function
main__Tinitial_positionsBFD.4:
.LFB80:
	.cfi_startproc
	subq	$8, %rsp
	.cfi_def_cfa_offset 16
	leaq	8(%rdi), %rax
	movq	%rdi, %rdx
	movq	%rax, %rdi
	movq	%rdx, %rsi
	movl	$1, %edx
	call	main__Tinitial_positionsBDF.5
	addq	$8, %rsp
	.cfi_def_cfa_offset 8
	ret
	.cfi_endproc
.LFE80:
	.size	main__Tinitial_positionsBFD.4, .-main__Tinitial_positionsBFD.4
	.section	.rodata
.LC66:
	.ascii	"universe.ads"
	.zero	1
	.section	.text.main__univ__universe_itemIP___finalizer.12,"ax",@progbits
	.align 2
	.type	main__univ__universe_itemIP___finalizer.12, @function
main__univ__universe_itemIP___finalizer.12:
.LFB60:
	.cfi_startproc
	.cfi_personality 0x9b,DW.ref.__gnat_personality_v0
	.cfi_lsda 0x1b,.LLSDA60
	pushq	%r12
	.cfi_def_cfa_offset 16
	.cfi_offset 12, -16
	pushq	%rbp
	.cfi_def_cfa_offset 24
	.cfi_offset 6, -24
	pushq	%rbx
	.cfi_def_cfa_offset 32
	.cfi_offset 3, -32
	movq	%rdi, %r12
	movq	%r10, %rbx
.LEHB22:
	call	ada__exceptions__triggered_by_abort@PLT
	movl	%eax, %ebp
	movl	(%rbx), %eax
	cmpl	$2, %eax
	je	.L93
	cmpl	$3, %eax
	je	.L83
	cmpl	$1, %eax
	je	.L94
	movb	$0, %bl
.L85:
	xorl	$1, %ebp
	testb	%bl, %bpl
	je	.L81
	movl	$99, %esi
	leaq	.LC66(%rip), %rdi
	call	__gnat_rcheck_PE_Finalize_Raised_Exception@PLT
.LEHE22:
.L83:
	leaq	128(%r12), %rdi
	movl	$1, %esi
.LEHB23:
	call	ada__numerics__big_numbers__big_reals__big_realDF@PLT
.LEHE23:
	movb	$0, %bl
.L82:
	leaq	64(%r12), %rdi
	movl	$1, %esi
.LEHB24:
	call	spatial__velocityDF@PLT
.LEHE24:
	jmp	.L84
.L93:
	movb	$0, %bl
	jmp	.L82
.L94:
	movb	$0, %bl
.L84:
	movl	$1, %esi
	movq	%r12, %rdi
.LEHB25:
	call	spatial__positionDF@PLT
.LEHE25:
	jmp	.L85
.L95:
	movq	%rax, %rbx
	cmpq	$1, %rdx
	je	.L88
	movq	%rax, %rdi
.LEHB26:
	call	_Unwind_Resume@PLT
.L88:
	movq	%rax, %rdi
	call	__gnat_begin_handler_v1@PLT
	movq	%rax, %rsi
	movl	$0, %edx
	movq	%rbx, %rdi
	call	__gnat_end_handler_v1@PLT
	movb	$1, %bl
	jmp	.L82
.L96:
	movq	%rax, %rbx
	cmpq	$2, %rdx
	je	.L90
	movq	%rax, %rdi
	call	_Unwind_Resume@PLT
.L90:
	movq	%rax, %rdi
	call	__gnat_begin_handler_v1@PLT
	movq	%rax, %rsi
	movl	$0, %edx
	movq	%rbx, %rdi
	call	__gnat_end_handler_v1@PLT
	movb	$1, %bl
	jmp	.L84
.L97:
	movq	%rax, %rbx
	cmpq	$3, %rdx
	je	.L92
	movq	%rax, %rdi
	call	_Unwind_Resume@PLT
.L92:
	movq	%rax, %rdi
	call	__gnat_begin_handler_v1@PLT
	movq	%rax, %rsi
	movl	$0, %edx
	movq	%rbx, %rdi
	call	__gnat_end_handler_v1@PLT
	movb	$1, %bl
	jmp	.L85
.L81:
.LEHE26:
	popq	%rbx
	.cfi_def_cfa_offset 24
	popq	%rbp
	.cfi_def_cfa_offset 16
	popq	%r12
	.cfi_def_cfa_offset 8
	ret
	.cfi_endproc
.LFE60:
	.section	.gcc_except_table.main__univ__universe_itemIP___finalizer.12,"a",@progbits
	.align 4
.LLSDA60:
	.byte	0xff
	.byte	0x9b
	.uleb128 .LLSDATT60-.LLSDATTD60
.LLSDATTD60:
	.byte	0x1
	.uleb128 .LLSDACSE60-.LLSDACSB60
.LLSDACSB60:
	.uleb128 .LEHB22-.LFB60
	.uleb128 .LEHE22-.LEHB22
	.uleb128 0
	.uleb128 0
	.uleb128 .LEHB23-.LFB60
	.uleb128 .LEHE23-.LEHB23
	.uleb128 .L95-.LFB60
	.uleb128 0x1
	.uleb128 .LEHB24-.LFB60
	.uleb128 .LEHE24-.LEHB24
	.uleb128 .L96-.LFB60
	.uleb128 0x3
	.uleb128 .LEHB25-.LFB60
	.uleb128 .LEHE25-.LEHB25
	.uleb128 .L97-.LFB60
	.uleb128 0x5
	.uleb128 .LEHB26-.LFB60
	.uleb128 .LEHE26-.LEHB26
	.uleb128 0
	.uleb128 0
.LLSDACSE60:
	.byte	0x1
	.byte	0
	.byte	0x2
	.byte	0
	.byte	0x3
	.byte	0
	.align 4
	.long	DW.ref.__gnat_others_value-.
	.long	DW.ref.__gnat_others_value-.
	.long	DW.ref.__gnat_others_value-.
.LLSDATT60:
	.section	.text.main__univ__universe_itemIP___finalizer.12
	.size	main__univ__universe_itemIP___finalizer.12, .-main__univ__universe_itemIP___finalizer.12
	.section	.text.main__univ__universe_itemDF.15,"ax",@progbits
	.align 2
	.type	main__univ__universe_itemDF.15, @function
main__univ__universe_itemDF.15:
.LFB57:
	.cfi_startproc
	.cfi_personality 0x9b,DW.ref.__gnat_personality_v0
	.cfi_lsda 0x1b,.LLSDA57
	pushq	%r15
	.cfi_def_cfa_offset 16
	.cfi_offset 15, -16
	pushq	%r14
	.cfi_def_cfa_offset 24
	.cfi_offset 14, -24
	pushq	%rbx
	.cfi_def_cfa_offset 32
	.cfi_offset 3, -32
	movq	%rdi, %rbx
.LEHB27:
	call	ada__exceptions__triggered_by_abort@PLT
.LEHE27:
	movl	%eax, %r15d
	leaq	128(%rbx), %rdi
	movl	$1, %esi
.LEHB28:
	call	ada__numerics__big_numbers__big_reals__big_realDF@PLT
.LEHE28:
	movl	$0, %r14d
.L103:
	leaq	64(%rbx), %rdi
	movl	$1, %esi
.LEHB29:
	call	spatial__velocityDF@PLT
.LEHE29:
	jmp	.L106
.L114:
	movl	$99, %esi
	leaq	.LC66(%rip), %rdi
.LEHB30:
	call	__gnat_rcheck_PE_Finalize_Raised_Exception@PLT
.L110:
	movq	%rax, %rdi
	cmpq	$1, %rdx
	je	.L102
	call	_Unwind_Resume@PLT
.L102:
	movq	%rax, %r14
	call	__gnat_begin_handler_v1@PLT
	movq	%rax, %rsi
	movl	$0, %edx
	movq	%r14, %rdi
	call	__gnat_end_handler_v1@PLT
	movl	$1, %r14d
	jmp	.L103
.L111:
	movq	%rax, %rdi
	cmpq	$2, %rdx
	je	.L105
	call	_Unwind_Resume@PLT
.L105:
	movq	%rax, %r14
	call	__gnat_begin_handler_v1@PLT
	movq	%rax, %rsi
	movl	$0, %edx
	movq	%r14, %rdi
	call	__gnat_end_handler_v1@PLT
.LEHE30:
	movl	$1, %r14d
.L106:
	movl	$1, %esi
	movq	%rbx, %rdi
.LEHB31:
	call	spatial__positionDF@PLT
.LEHE31:
	jmp	.L109
.L112:
	movq	%rax, %rbx
	cmpq	$3, %rdx
	je	.L108
	movq	%rax, %rdi
.LEHB32:
	call	_Unwind_Resume@PLT
.L108:
	movq	%rax, %rdi
	call	__gnat_begin_handler_v1@PLT
	movq	%rax, %rsi
	movl	$0, %edx
	movq	%rbx, %rdi
	call	__gnat_end_handler_v1@PLT
	movl	$1, %r14d
.L109:
	movl	%r15d, %eax
	xorl	$1, %eax
	testb	%al, %r14b
	jne	.L114
.LEHE32:
	popq	%rbx
	.cfi_def_cfa_offset 24
	popq	%r14
	.cfi_def_cfa_offset 16
	popq	%r15
	.cfi_def_cfa_offset 8
	ret
	.cfi_endproc
.LFE57:
	.section	.gcc_except_table.main__univ__universe_itemDF.15,"a",@progbits
	.align 4
.LLSDA57:
	.byte	0xff
	.byte	0x9b
	.uleb128 .LLSDATT57-.LLSDATTD57
.LLSDATTD57:
	.byte	0x1
	.uleb128 .LLSDACSE57-.LLSDACSB57
.LLSDACSB57:
	.uleb128 .LEHB27-.LFB57
	.uleb128 .LEHE27-.LEHB27
	.uleb128 0
	.uleb128 0
	.uleb128 .LEHB28-.LFB57
	.uleb128 .LEHE28-.LEHB28
	.uleb128 .L110-.LFB57
	.uleb128 0x1
	.uleb128 .LEHB29-.LFB57
	.uleb128 .LEHE29-.LEHB29
	.uleb128 .L111-.LFB57
	.uleb128 0x3
	.uleb128 .LEHB30-.LFB57
	.uleb128 .LEHE30-.LEHB30
	.uleb128 0
	.uleb128 0
	.uleb128 .LEHB31-.LFB57
	.uleb128 .LEHE31-.LEHB31
	.uleb128 .L112-.LFB57
	.uleb128 0x5
	.uleb128 .LEHB32-.LFB57
	.uleb128 .LEHE32-.LEHB32
	.uleb128 0
	.uleb128 0
.LLSDACSE57:
	.byte	0x1
	.byte	0
	.byte	0x2
	.byte	0
	.byte	0x3
	.byte	0
	.align 4
	.long	DW.ref.__gnat_others_value-.
	.long	DW.ref.__gnat_others_value-.
	.long	DW.ref.__gnat_others_value-.
.LLSDATT57:
	.section	.text.main__univ__universe_itemDF.15
	.size	main__univ__universe_itemDF.15, .-main__univ__universe_itemDF.15
	.section	.text.main__univ__universe_itemFD.59,"ax",@progbits
	.align 2
	.type	main__univ__universe_itemFD.59, @function
main__univ__universe_itemFD.59:
.LFB58:
	.cfi_startproc
	subq	$8, %rsp
	.cfi_def_cfa_offset 16
	movl	$1, %esi
	call	main__univ__universe_itemDF.15
	addq	$8, %rsp
	.cfi_def_cfa_offset 8
	ret
	.cfi_endproc
.LFE58:
	.size	main__univ__universe_itemFD.59, .-main__univ__universe_itemFD.59
	.section	.text.main__univ__TitemarrayBDF.17,"ax",@progbits
	.align 2
	.type	main__univ__TitemarrayBDF.17, @function
main__univ__TitemarrayBDF.17:
.LFB64:
	.cfi_startproc
	.cfi_personality 0x9b,DW.ref.__gnat_personality_v0
	.cfi_lsda 0x1b,.LLSDA64
	pushq	%r15
	.cfi_def_cfa_offset 16
	.cfi_offset 15, -16
	pushq	%r14
	.cfi_def_cfa_offset 24
	.cfi_offset 14, -24
	pushq	%r13
	.cfi_def_cfa_offset 32
	.cfi_offset 13, -32
	pushq	%r12
	.cfi_def_cfa_offset 40
	.cfi_offset 12, -40
	pushq	%rbp
	.cfi_def_cfa_offset 48
	.cfi_offset 6, -48
	pushq	%rbx
	.cfi_def_cfa_offset 56
	.cfi_offset 3, -56
.LEHB33:
	subq	$8, %rsp
	.cfi_def_cfa_offset 64
	movq	%rdi, %r12
	movq	%rsi, %rbp
	movslq	(%rsi), %r13
	call	ada__exceptions__triggered_by_abort@PLT
	movl	%eax, %r15d
	movl	4(%rbp), %ebx
	movl	$0, %r14d
	jmp	.L119
.L118:
	movl	%r15d, %eax
	xorl	$1, %eax
	testb	%al, %r14b
	jne	.L126
	addq	$8, %rsp
	.cfi_remember_state
	.cfi_def_cfa_offset 56
	popq	%rbx
	.cfi_def_cfa_offset 48
	popq	%rbp
	.cfi_def_cfa_offset 40
	popq	%r12
	.cfi_def_cfa_offset 32
	popq	%r13
	.cfi_def_cfa_offset 24
	popq	%r14
	.cfi_def_cfa_offset 16
	popq	%r15
	.cfi_def_cfa_offset 8
	ret
.L126:
	.cfi_restore_state
	movl	$105, %esi
	leaq	.LC66(%rip), %rdi
	call	__gnat_rcheck_PE_Finalize_Raised_Exception@PLT
.L124:
	movq	%rax, %rdi
	cmpq	$1, %rdx
	je	.L122
	call	_Unwind_Resume@PLT
.L122:
	movq	%rax, %r14
	call	__gnat_begin_handler_v1@PLT
	movq	%rax, %rsi
	movl	$0, %edx
	movq	%r14, %rdi
	call	__gnat_end_handler_v1@PLT
.LEHE33:
	movl	$1, %r14d
.L123:
	subl	$1, %ebx
.L119:
	cmpl	%ebx, 0(%rbp)
	jg	.L118
	movslq	%ebx, %rax
	subq	%r13, %rax
	leaq	(%rax,%rax,4), %rdi
	salq	$5, %rdi
	addq	%r12, %rdi
	movl	$1, %esi
.LEHB34:
	call	main__univ__universe_itemDF.15
.LEHE34:
	jmp	.L123
	.cfi_endproc
.LFE64:
	.section	.gcc_except_table.main__univ__TitemarrayBDF.17,"a",@progbits
	.align 4
.LLSDA64:
	.byte	0xff
	.byte	0x9b
	.uleb128 .LLSDATT64-.LLSDATTD64
.LLSDATTD64:
	.byte	0x1
	.uleb128 .LLSDACSE64-.LLSDACSB64
.LLSDACSB64:
	.uleb128 .LEHB33-.LFB64
	.uleb128 .LEHE33-.LEHB33
	.uleb128 0
	.uleb128 0
	.uleb128 .LEHB34-.LFB64
	.uleb128 .LEHE34-.LEHB34
	.uleb128 .L124-.LFB64
	.uleb128 0x1
.LLSDACSE64:
	.byte	0x1
	.byte	0
	.align 4
	.long	DW.ref.__gnat_others_value-.
.LLSDATT64:
	.section	.text.main__univ__TitemarrayBDF.17
	.size	main__univ__TitemarrayBDF.17, .-main__univ__TitemarrayBDF.17
	.section	.rodata
	.align 8
.LC7:
	.long	1
	.long	10
	.section	.text.main__univ__universeIP___finalizer.16,"ax",@progbits
	.align 2
	.type	main__univ__universeIP___finalizer.16, @function
main__univ__universeIP___finalizer.16:
.LFB72:
	.cfi_startproc
	.cfi_personality 0x9b,DW.ref.__gnat_personality_v0
	.cfi_lsda 0x1b,.LLSDA72
	pushq	%r12
	.cfi_def_cfa_offset 16
	.cfi_offset 12, -16
	pushq	%rbp
	.cfi_def_cfa_offset 24
	.cfi_offset 6, -24
	pushq	%rbx
	.cfi_def_cfa_offset 32
	.cfi_offset 3, -32
	movq	%rdi, %rbx
	movq	%r10, %r12
.LEHB35:
	call	ada__exceptions__triggered_by_abort@PLT
.LEHE35:
	movl	%eax, %ebp
	cmpl	$1, (%r12)
	jne	.L133
.L129:
	movq	%rbx, %rdi
	movl	$1, %edx
	leaq	.LC7(%rip), %rsi
.LEHB36:
	call	main__univ__TitemarrayBDF.17
.LEHE36:
	movb	$0, %al
.L128:
	xorl	$1, %ebp
	testb	%al, %bpl
	je	.L127
	movl	$108, %esi
	leaq	.LC66(%rip), %rdi
.LEHB37:
	call	__gnat_rcheck_PE_Finalize_Raised_Exception@PLT
.L133:
	movb	$0, %al
	jmp	.L128
.L134:
	movq	%rax, %rbx
	cmpq	$1, %rdx
	je	.L132
	movq	%rax, %rdi
	call	_Unwind_Resume@PLT
.L132:
	movq	%rax, %rdi
	call	__gnat_begin_handler_v1@PLT
	movq	%rax, %rsi
	movl	$0, %edx
	movq	%rbx, %rdi
	call	__gnat_end_handler_v1@PLT
	movb	$1, %al
	jmp	.L128
.L127:
.LEHE37:
	popq	%rbx
	.cfi_def_cfa_offset 24
	popq	%rbp
	.cfi_def_cfa_offset 16
	popq	%r12
	.cfi_def_cfa_offset 8
	ret
	.cfi_endproc
.LFE72:
	.section	.gcc_except_table.main__univ__universeIP___finalizer.16,"a",@progbits
	.align 4
.LLSDA72:
	.byte	0xff
	.byte	0x9b
	.uleb128 .LLSDATT72-.LLSDATTD72
.LLSDATTD72:
	.byte	0x1
	.uleb128 .LLSDACSE72-.LLSDACSB72
.LLSDACSB72:
	.uleb128 .LEHB35-.LFB72
	.uleb128 .LEHE35-.LEHB35
	.uleb128 0
	.uleb128 0
	.uleb128 .LEHB36-.LFB72
	.uleb128 .LEHE36-.LEHB36
	.uleb128 .L134-.LFB72
	.uleb128 0x1
	.uleb128 .LEHB37-.LFB72
	.uleb128 .LEHE37-.LEHB37
	.uleb128 0
	.uleb128 0
.LLSDACSE72:
	.byte	0x1
	.byte	0
	.align 4
	.long	DW.ref.__gnat_others_value-.
.LLSDATT72:
	.section	.text.main__univ__universeIP___finalizer.16
	.size	main__univ__universeIP___finalizer.16, .-main__univ__universeIP___finalizer.16
	.section	.rodata
.LC67:
	.ascii	"a-nbnbin.adb"
	.zero	1
	.section	.text.main__fc__conv__to_big_integer___finalizer.21,"ax",@progbits
	.align 2
	.type	main__fc__conv__to_big_integer___finalizer.21, @function
main__fc__conv__to_big_integer___finalizer.21:
.LFB17:
	.cfi_startproc
	.cfi_personality 0x9b,DW.ref.__gnat_personality_v0
	.cfi_lsda 0x1b,.LLSDA17
	pushq	%r14
	.cfi_def_cfa_offset 16
	.cfi_offset 14, -16
	pushq	%rbx
	.cfi_def_cfa_offset 24
	.cfi_offset 3, -24
.LEHB38:
	subq	$8, %rsp
	.cfi_def_cfa_offset 32
	movq	%r10, %rbx
	call	ada__exceptions__triggered_by_abort@PLT
	movl	%eax, %r14d
	call	*system__soft_links__abort_defer(%rip)
.LEHE38:
	movq	ada__numerics__big_numbers__big_integers__big_integerFD@GOTPCREL(%rip), %rsi
	movq	%rbx, %rdi
.LEHB39:
	call	system__finalization_primitives__finalize_object@PLT
.LEHE39:
	movl	$0, %ebx
.L140:
.LEHB40:
	call	*system__soft_links__abort_undefer(%rip)
	movl	%r14d, %eax
	xorl	$1, %eax
	testb	%al, %bl
	jne	.L143
	addq	$8, %rsp
	.cfi_remember_state
	.cfi_def_cfa_offset 24
	popq	%rbx
	.cfi_def_cfa_offset 16
	popq	%r14
	.cfi_def_cfa_offset 8
	ret
.L143:
	.cfi_restore_state
	movl	$205, %esi
	leaq	.LC67(%rip), %rdi
	call	__gnat_rcheck_PE_Finalize_Raised_Exception@PLT
.L141:
	movq	%rax, %rdi
	cmpq	$1, %rdx
	je	.L139
	call	_Unwind_Resume@PLT
.L139:
	movq	%rax, %rbx
	movq	%rax, %rdi
	call	__gnat_begin_handler_v1@PLT
	movq	%rax, %rsi
	movl	$0, %edx
	movq	%rbx, %rdi
	call	__gnat_end_handler_v1@PLT
.LEHE40:
	movl	$1, %ebx
	jmp	.L140
	.cfi_endproc
.LFE17:
	.section	.gcc_except_table.main__fc__conv__to_big_integer___finalizer.21,"a",@progbits
	.align 4
.LLSDA17:
	.byte	0xff
	.byte	0x9b
	.uleb128 .LLSDATT17-.LLSDATTD17
.LLSDATTD17:
	.byte	0x1
	.uleb128 .LLSDACSE17-.LLSDACSB17
.LLSDACSB17:
	.uleb128 .LEHB38-.LFB17
	.uleb128 .LEHE38-.LEHB38
	.uleb128 0
	.uleb128 0
	.uleb128 .LEHB39-.LFB17
	.uleb128 .LEHE39-.LEHB39
	.uleb128 .L141-.LFB17
	.uleb128 0x1
	.uleb128 .LEHB40-.LFB17
	.uleb128 .LEHE40-.LEHB40
	.uleb128 0
	.uleb128 0
.LLSDACSE17:
	.byte	0x1
	.byte	0
	.align 4
	.long	DW.ref.__gnat_others_value-.
.LLSDATT17:
	.section	.text.main__fc__conv__to_big_integer___finalizer.21
	.size	main__fc__conv__to_big_integer___finalizer.21, .-main__fc__conv__to_big_integer___finalizer.21
	.section	.rodata
.LC68:
	.ascii	"a-nbnbre.adb"
	.zero	1
	.section	.text.main__fc__to_big_real__B1165b___finalizer.23,"ax",@progbits
	.align 2
	.type	main__fc__to_big_real__B1165b___finalizer.23, @function
main__fc__to_big_real__B1165b___finalizer.23:
.LFB20:
	.cfi_startproc
	.cfi_personality 0x9b,DW.ref.__gnat_personality_v0
	.cfi_lsda 0x1b,.LLSDA20
	pushq	%r14
	.cfi_def_cfa_offset 16
	.cfi_offset 14, -16
	pushq	%rbx
	.cfi_def_cfa_offset 24
	.cfi_offset 3, -24
.LEHB41:
	subq	$8, %rsp
	.cfi_def_cfa_offset 32
	movq	%r10, %rbx
	call	ada__exceptions__triggered_by_abort@PLT
	movl	%eax, %r14d
	call	*system__soft_links__abort_defer(%rip)
.LEHE41:
	addq	$120, %rbx
	movq	%rbx, %rdi
	movq	ada__numerics__big_numbers__big_integers__big_integerFD@GOTPCREL(%rip), %rsi
.LEHB42:
	call	system__finalization_primitives__finalize_object@PLT
.LEHE42:
	movl	$0, %ebx
.L148:
.LEHB43:
	call	*system__soft_links__abort_undefer(%rip)
	movl	%r14d, %eax
	xorl	$1, %eax
	testb	%al, %bl
	jne	.L151
	addq	$8, %rsp
	.cfi_remember_state
	.cfi_def_cfa_offset 24
	popq	%rbx
	.cfi_def_cfa_offset 16
	popq	%r14
	.cfi_def_cfa_offset 8
	ret
.L151:
	.cfi_restore_state
	movl	$149, %esi
	leaq	.LC68(%rip), %rdi
	call	__gnat_rcheck_PE_Finalize_Raised_Exception@PLT
.L149:
	movq	%rax, %rdi
	cmpq	$1, %rdx
	je	.L147
	call	_Unwind_Resume@PLT
.L147:
	movq	%rax, %rbx
	movq	%rax, %rdi
	call	__gnat_begin_handler_v1@PLT
	movq	%rax, %rsi
	movl	$0, %edx
	movq	%rbx, %rdi
	call	__gnat_end_handler_v1@PLT
.LEHE43:
	movl	$1, %ebx
	jmp	.L148
	.cfi_endproc
.LFE20:
	.section	.gcc_except_table.main__fc__to_big_real__B1165b___finalizer.23,"a",@progbits
	.align 4
.LLSDA20:
	.byte	0xff
	.byte	0x9b
	.uleb128 .LLSDATT20-.LLSDATTD20
.LLSDATTD20:
	.byte	0x1
	.uleb128 .LLSDACSE20-.LLSDACSB20
.LLSDACSB20:
	.uleb128 .LEHB41-.LFB20
	.uleb128 .LEHE41-.LEHB41
	.uleb128 0
	.uleb128 0
	.uleb128 .LEHB42-.LFB20
	.uleb128 .LEHE42-.LEHB42
	.uleb128 .L149-.LFB20
	.uleb128 0x1
	.uleb128 .LEHB43-.LFB20
	.uleb128 .LEHE43-.LEHB43
	.uleb128 0
	.uleb128 0
.LLSDACSE20:
	.byte	0x1
	.byte	0
	.align 4
	.long	DW.ref.__gnat_others_value-.
.LLSDATT20:
	.section	.text.main__fc__to_big_real__B1165b___finalizer.23
	.size	main__fc__to_big_real__B1165b___finalizer.23, .-main__fc__to_big_real__B1165b___finalizer.23
	.section	.text.main__fc__to_big_real__B1226b___finalizer.26,"ax",@progbits
	.align 2
	.type	main__fc__to_big_real__B1226b___finalizer.26, @function
main__fc__to_big_real__B1226b___finalizer.26:
.LFB23:
	.cfi_startproc
	.cfi_personality 0x9b,DW.ref.__gnat_personality_v0
	.cfi_lsda 0x1b,.LLSDA23
	pushq	%r14
	.cfi_def_cfa_offset 16
	.cfi_offset 14, -16
	pushq	%rbx
	.cfi_def_cfa_offset 24
	.cfi_offset 3, -24
.LEHB44:
	subq	$8, %rsp
	.cfi_def_cfa_offset 32
	movq	%r10, %rbx
	call	ada__exceptions__triggered_by_abort@PLT
	movl	%eax, %r14d
	call	*system__soft_links__abort_defer(%rip)
.LEHE44:
	addq	$64, %rbx
	movq	%rbx, %rdi
	movq	ada__numerics__big_numbers__big_integers__big_integerFD@GOTPCREL(%rip), %rsi
.LEHB45:
	call	system__finalization_primitives__finalize_object@PLT
.LEHE45:
	movl	$0, %ebx
.L156:
.LEHB46:
	call	*system__soft_links__abort_undefer(%rip)
	movl	%r14d, %eax
	xorl	$1, %eax
	testb	%al, %bl
	jne	.L159
	addq	$8, %rsp
	.cfi_remember_state
	.cfi_def_cfa_offset 24
	popq	%rbx
	.cfi_def_cfa_offset 16
	popq	%r14
	.cfi_def_cfa_offset 8
	ret
.L159:
	.cfi_restore_state
	movl	$160, %esi
	leaq	.LC68(%rip), %rdi
	call	__gnat_rcheck_PE_Finalize_Raised_Exception@PLT
.L157:
	movq	%rax, %rdi
	cmpq	$1, %rdx
	je	.L155
	call	_Unwind_Resume@PLT
.L155:
	movq	%rax, %rbx
	movq	%rax, %rdi
	call	__gnat_begin_handler_v1@PLT
	movq	%rax, %rsi
	movl	$0, %edx
	movq	%rbx, %rdi
	call	__gnat_end_handler_v1@PLT
.LEHE46:
	movl	$1, %ebx
	jmp	.L156
	.cfi_endproc
.LFE23:
	.section	.gcc_except_table.main__fc__to_big_real__B1226b___finalizer.26,"a",@progbits
	.align 4
.LLSDA23:
	.byte	0xff
	.byte	0x9b
	.uleb128 .LLSDATT23-.LLSDATTD23
.LLSDATTD23:
	.byte	0x1
	.uleb128 .LLSDACSE23-.LLSDACSB23
.LLSDACSB23:
	.uleb128 .LEHB44-.LFB23
	.uleb128 .LEHE44-.LEHB44
	.uleb128 0
	.uleb128 0
	.uleb128 .LEHB45-.LFB23
	.uleb128 .LEHE45-.LEHB45
	.uleb128 .L157-.LFB23
	.uleb128 0x1
	.uleb128 .LEHB46-.LFB23
	.uleb128 .LEHE46-.LEHB46
	.uleb128 0
	.uleb128 0
.LLSDACSE23:
	.byte	0x1
	.byte	0
	.align 4
	.long	DW.ref.__gnat_others_value-.
.LLSDATT23:
	.section	.text.main__fc__to_big_real__B1226b___finalizer.26
	.size	main__fc__to_big_real__B1226b___finalizer.26, .-main__fc__to_big_real__B1226b___finalizer.26
	.section	.text.main__fc__to_big_real__B1238b___finalizer.27,"ax",@progbits
	.align 2
	.type	main__fc__to_big_real__B1238b___finalizer.27, @function
main__fc__to_big_real__B1238b___finalizer.27:
.LFB24:
	.cfi_startproc
	.cfi_personality 0x9b,DW.ref.__gnat_personality_v0
	.cfi_lsda 0x1b,.LLSDA24
	pushq	%r14
	.cfi_def_cfa_offset 16
	.cfi_offset 14, -16
	pushq	%rbx
	.cfi_def_cfa_offset 24
	.cfi_offset 3, -24
.LEHB47:
	subq	$8, %rsp
	.cfi_def_cfa_offset 32
	movq	%r10, %rbx
	call	ada__exceptions__triggered_by_abort@PLT
	movl	%eax, %r14d
	call	*system__soft_links__abort_defer(%rip)
.LEHE47:
	addq	$40, %rbx
	movq	%rbx, %rdi
	movq	ada__numerics__big_numbers__big_integers__big_integerFD@GOTPCREL(%rip), %rsi
.LEHB48:
	call	system__finalization_primitives__finalize_object@PLT
.LEHE48:
	movl	$0, %ebx
.L164:
.LEHB49:
	call	*system__soft_links__abort_undefer(%rip)
	movl	%r14d, %eax
	xorl	$1, %eax
	testb	%al, %bl
	jne	.L167
	addq	$8, %rsp
	.cfi_remember_state
	.cfi_def_cfa_offset 24
	popq	%rbx
	.cfi_def_cfa_offset 16
	popq	%r14
	.cfi_def_cfa_offset 8
	ret
.L167:
	.cfi_restore_state
	movl	$165, %esi
	leaq	.LC68(%rip), %rdi
	call	__gnat_rcheck_PE_Finalize_Raised_Exception@PLT
.L165:
	movq	%rax, %rdi
	cmpq	$1, %rdx
	je	.L163
	call	_Unwind_Resume@PLT
.L163:
	movq	%rax, %rbx
	movq	%rax, %rdi
	call	__gnat_begin_handler_v1@PLT
	movq	%rax, %rsi
	movl	$0, %edx
	movq	%rbx, %rdi
	call	__gnat_end_handler_v1@PLT
.LEHE49:
	movl	$1, %ebx
	jmp	.L164
	.cfi_endproc
.LFE24:
	.section	.gcc_except_table.main__fc__to_big_real__B1238b___finalizer.27,"a",@progbits
	.align 4
.LLSDA24:
	.byte	0xff
	.byte	0x9b
	.uleb128 .LLSDATT24-.LLSDATTD24
.LLSDATTD24:
	.byte	0x1
	.uleb128 .LLSDACSE24-.LLSDACSB24
.LLSDACSB24:
	.uleb128 .LEHB47-.LFB24
	.uleb128 .LEHE47-.LEHB47
	.uleb128 0
	.uleb128 0
	.uleb128 .LEHB48-.LFB24
	.uleb128 .LEHE48-.LEHB48
	.uleb128 .L165-.LFB24
	.uleb128 0x1
	.uleb128 .LEHB49-.LFB24
	.uleb128 .LEHE49-.LEHB49
	.uleb128 0
	.uleb128 0
.LLSDACSE24:
	.byte	0x1
	.byte	0
	.align 4
	.long	DW.ref.__gnat_others_value-.
.LLSDATT24:
	.section	.text.main__fc__to_big_real__B1238b___finalizer.27
	.size	main__fc__to_big_real__B1238b___finalizer.27, .-main__fc__to_big_real__B1238b___finalizer.27
	.section	.rodata
.LC69:
	.ascii	"universe.adb"
	.zero	1
	.section	.text.main__univ__tick__L_2__B1147b___finalizer.33,"ax",@progbits
	.align 2
	.type	main__univ__tick__L_2__B1147b___finalizer.33, @function
main__univ__tick__L_2__B1147b___finalizer.33:
.LFB15:
	.cfi_startproc
	.cfi_personality 0x9b,DW.ref.__gnat_personality_v0
	.cfi_lsda 0x1b,.LLSDA15
	pushq	%r14
	.cfi_def_cfa_offset 16
	.cfi_offset 14, -16
	pushq	%rbx
	.cfi_def_cfa_offset 24
	.cfi_offset 3, -24
.LEHB50:
	subq	$8, %rsp
	.cfi_def_cfa_offset 32
	movq	%r10, %rbx
	call	ada__exceptions__triggered_by_abort@PLT
	movl	%eax, %r14d
	call	*system__soft_links__abort_defer(%rip)
.LEHE50:
	movq	spatial__positionFD@GOTPCREL(%rip), %rsi
	movq	%rbx, %rdi
.LEHB51:
	call	system__finalization_primitives__finalize_object@PLT
.LEHE51:
	movl	$0, %ebx
.L172:
.LEHB52:
	call	*system__soft_links__abort_undefer(%rip)
	movl	%r14d, %eax
	xorl	$1, %eax
	testb	%al, %bl
	jne	.L175
	addq	$8, %rsp
	.cfi_remember_state
	.cfi_def_cfa_offset 24
	popq	%rbx
	.cfi_def_cfa_offset 16
	popq	%r14
	.cfi_def_cfa_offset 8
	ret
.L175:
	.cfi_restore_state
	movl	$87, %esi
	leaq	.LC69(%rip), %rdi
	call	__gnat_rcheck_PE_Finalize_Raised_Exception@PLT
.L173:
	movq	%rax, %rdi
	cmpq	$1, %rdx
	je	.L171
	call	_Unwind_Resume@PLT
.L171:
	movq	%rax, %rbx
	movq	%rax, %rdi
	call	__gnat_begin_handler_v1@PLT
	movq	%rax, %rsi
	movl	$0, %edx
	movq	%rbx, %rdi
	call	__gnat_end_handler_v1@PLT
.LEHE52:
	movl	$1, %ebx
	jmp	.L172
	.cfi_endproc
.LFE15:
	.section	.gcc_except_table.main__univ__tick__L_2__B1147b___finalizer.33,"a",@progbits
	.align 4
.LLSDA15:
	.byte	0xff
	.byte	0x9b
	.uleb128 .LLSDATT15-.LLSDATTD15
.LLSDATTD15:
	.byte	0x1
	.uleb128 .LLSDACSE15-.LLSDACSB15
.LLSDACSB15:
	.uleb128 .LEHB50-.LFB15
	.uleb128 .LEHE50-.LEHB50
	.uleb128 0
	.uleb128 0
	.uleb128 .LEHB51-.LFB15
	.uleb128 .LEHE51-.LEHB51
	.uleb128 .L173-.LFB15
	.uleb128 0x1
	.uleb128 .LEHB52-.LFB15
	.uleb128 .LEHE52-.LEHB52
	.uleb128 0
	.uleb128 0
.LLSDACSE15:
	.byte	0x1
	.byte	0
	.align 4
	.long	DW.ref.__gnat_others_value-.
.LLSDATT15:
	.section	.text.main__univ__tick__L_2__B1147b___finalizer.33
	.size	main__univ__tick__L_2__B1147b___finalizer.33, .-main__univ__tick__L_2__B1147b___finalizer.33
	.section	.rodata
.LC70:
	.ascii	"a-nbnbre.ads"
	.zero	1
	.section	.text.ada__numerics__big_numbers__big_reals__to_big_real__B38s___finalizer.34,"ax",@progbits
	.align 2
	.type	ada__numerics__big_numbers__big_reals__to_big_real__B38s___finalizer.34, @function
ada__numerics__big_numbers__big_reals__to_big_real__B38s___finalizer.34:
.LFB121:
	.cfi_startproc
	.cfi_personality 0x9b,DW.ref.__gnat_personality_v0
	.cfi_lsda 0x1b,.LLSDA121
	pushq	%r14
	.cfi_def_cfa_offset 16
	.cfi_offset 14, -16
	pushq	%rbx
	.cfi_def_cfa_offset 24
	.cfi_offset 3, -24
.LEHB53:
	subq	$8, %rsp
	.cfi_def_cfa_offset 32
	movq	%r10, %rbx
	call	ada__exceptions__triggered_by_abort@PLT
	movl	%eax, %r14d
	call	*system__soft_links__abort_defer(%rip)
.LEHE53:
	movq	ada__numerics__big_numbers__big_integers__big_integerFD@GOTPCREL(%rip), %rsi
	movq	%rbx, %rdi
.LEHB54:
	call	system__finalization_primitives__finalize_object@PLT
.LEHE54:
	movl	$0, %ebx
.L180:
.LEHB55:
	call	*system__soft_links__abort_undefer(%rip)
	movl	%r14d, %eax
	xorl	$1, %eax
	testb	%al, %bl
	jne	.L183
	addq	$8, %rsp
	.cfi_remember_state
	.cfi_def_cfa_offset 24
	popq	%rbx
	.cfi_def_cfa_offset 16
	popq	%r14
	.cfi_def_cfa_offset 8
	ret
.L183:
	.cfi_restore_state
	movl	$62, %esi
	leaq	.LC70(%rip), %rdi
	call	__gnat_rcheck_PE_Finalize_Raised_Exception@PLT
.L181:
	movq	%rax, %rdi
	cmpq	$1, %rdx
	je	.L179
	call	_Unwind_Resume@PLT
.L179:
	movq	%rax, %rbx
	movq	%rax, %rdi
	call	__gnat_begin_handler_v1@PLT
	movq	%rax, %rsi
	movl	$0, %edx
	movq	%rbx, %rdi
	call	__gnat_end_handler_v1@PLT
.LEHE55:
	movl	$1, %ebx
	jmp	.L180
	.cfi_endproc
.LFE121:
	.section	.gcc_except_table.ada__numerics__big_numbers__big_reals__to_big_real__B38s___finalizer.34,"a",@progbits
	.align 4
.LLSDA121:
	.byte	0xff
	.byte	0x9b
	.uleb128 .LLSDATT121-.LLSDATTD121
.LLSDATTD121:
	.byte	0x1
	.uleb128 .LLSDACSE121-.LLSDACSB121
.LLSDACSB121:
	.uleb128 .LEHB53-.LFB121
	.uleb128 .LEHE53-.LEHB53
	.uleb128 0
	.uleb128 0
	.uleb128 .LEHB54-.LFB121
	.uleb128 .LEHE54-.LEHB54
	.uleb128 .L181-.LFB121
	.uleb128 0x1
	.uleb128 .LEHB55-.LFB121
	.uleb128 .LEHE55-.LEHB55
	.uleb128 0
	.uleb128 0
.LLSDACSE121:
	.byte	0x1
	.byte	0
	.align 4
	.long	DW.ref.__gnat_others_value-.
.LLSDATT121:
	.section	.text.ada__numerics__big_numbers__big_reals__to_big_real__B38s___finalizer.34
	.size	ada__numerics__big_numbers__big_reals__to_big_real__B38s___finalizer.34, .-ada__numerics__big_numbers__big_reals__to_big_real__B38s___finalizer.34
	.section	.text.main__univ__reflect_velocity_x__B1056b___finalizer.43,"ax",@progbits
	.align 2
	.type	main__univ__reflect_velocity_x__B1056b___finalizer.43, @function
main__univ__reflect_velocity_x__B1056b___finalizer.43:
.LFB8:
	.cfi_startproc
	.cfi_personality 0x9b,DW.ref.__gnat_personality_v0
	.cfi_lsda 0x1b,.LLSDA8
	pushq	%r14
	.cfi_def_cfa_offset 16
	.cfi_offset 14, -16
	pushq	%rbx
	.cfi_def_cfa_offset 24
	.cfi_offset 3, -24
.LEHB56:
	subq	$8, %rsp
	.cfi_def_cfa_offset 32
	movq	%r10, %rbx
	call	ada__exceptions__triggered_by_abort@PLT
	movl	%eax, %r14d
	call	*system__soft_links__abort_defer(%rip)
.LEHE56:
	movq	spatial__velocityFD@GOTPCREL(%rip), %rsi
	movq	%rbx, %rdi
.LEHB57:
	call	system__finalization_primitives__finalize_object@PLT
.LEHE57:
	movl	$0, %ebx
.L188:
.LEHB58:
	call	*system__soft_links__abort_undefer(%rip)
	movl	%r14d, %eax
	xorl	$1, %eax
	testb	%al, %bl
	jne	.L191
	addq	$8, %rsp
	.cfi_remember_state
	.cfi_def_cfa_offset 24
	popq	%rbx
	.cfi_def_cfa_offset 16
	popq	%r14
	.cfi_def_cfa_offset 8
	ret
.L191:
	.cfi_restore_state
	movl	$39, %esi
	leaq	.LC69(%rip), %rdi
	call	__gnat_rcheck_PE_Finalize_Raised_Exception@PLT
.L189:
	movq	%rax, %rdi
	cmpq	$1, %rdx
	je	.L187
	call	_Unwind_Resume@PLT
.L187:
	movq	%rax, %rbx
	movq	%rax, %rdi
	call	__gnat_begin_handler_v1@PLT
	movq	%rax, %rsi
	movl	$0, %edx
	movq	%rbx, %rdi
	call	__gnat_end_handler_v1@PLT
.LEHE58:
	movl	$1, %ebx
	jmp	.L188
	.cfi_endproc
.LFE8:
	.section	.gcc_except_table.main__univ__reflect_velocity_x__B1056b___finalizer.43,"a",@progbits
	.align 4
.LLSDA8:
	.byte	0xff
	.byte	0x9b
	.uleb128 .LLSDATT8-.LLSDATTD8
.LLSDATTD8:
	.byte	0x1
	.uleb128 .LLSDACSE8-.LLSDACSB8
.LLSDACSB8:
	.uleb128 .LEHB56-.LFB8
	.uleb128 .LEHE56-.LEHB56
	.uleb128 0
	.uleb128 0
	.uleb128 .LEHB57-.LFB8
	.uleb128 .LEHE57-.LEHB57
	.uleb128 .L189-.LFB8
	.uleb128 0x1
	.uleb128 .LEHB58-.LFB8
	.uleb128 .LEHE58-.LEHB58
	.uleb128 0
	.uleb128 0
.LLSDACSE8:
	.byte	0x1
	.byte	0
	.align 4
	.long	DW.ref.__gnat_others_value-.
.LLSDATT8:
	.section	.text.main__univ__reflect_velocity_x__B1056b___finalizer.43
	.size	main__univ__reflect_velocity_x__B1056b___finalizer.43, .-main__univ__reflect_velocity_x__B1056b___finalizer.43
	.section	.text.main__univ__reflect_velocity_y__B1068b___finalizer.46,"ax",@progbits
	.align 2
	.type	main__univ__reflect_velocity_y__B1068b___finalizer.46, @function
main__univ__reflect_velocity_y__B1068b___finalizer.46:
.LFB10:
	.cfi_startproc
	.cfi_personality 0x9b,DW.ref.__gnat_personality_v0
	.cfi_lsda 0x1b,.LLSDA10
	pushq	%r14
	.cfi_def_cfa_offset 16
	.cfi_offset 14, -16
	pushq	%rbx
	.cfi_def_cfa_offset 24
	.cfi_offset 3, -24
.LEHB59:
	subq	$8, %rsp
	.cfi_def_cfa_offset 32
	movq	%r10, %rbx
	call	ada__exceptions__triggered_by_abort@PLT
	movl	%eax, %r14d
	call	*system__soft_links__abort_defer(%rip)
.LEHE59:
	movq	spatial__velocityFD@GOTPCREL(%rip), %rsi
	movq	%rbx, %rdi
.LEHB60:
	call	system__finalization_primitives__finalize_object@PLT
.LEHE60:
	movl	$0, %ebx
.L196:
.LEHB61:
	call	*system__soft_links__abort_undefer(%rip)
	movl	%r14d, %eax
	xorl	$1, %eax
	testb	%al, %bl
	jne	.L199
	addq	$8, %rsp
	.cfi_remember_state
	.cfi_def_cfa_offset 24
	popq	%rbx
	.cfi_def_cfa_offset 16
	popq	%r14
	.cfi_def_cfa_offset 8
	ret
.L199:
	.cfi_restore_state
	movl	$45, %esi
	leaq	.LC69(%rip), %rdi
	call	__gnat_rcheck_PE_Finalize_Raised_Exception@PLT
.L197:
	movq	%rax, %rdi
	cmpq	$1, %rdx
	je	.L195
	call	_Unwind_Resume@PLT
.L195:
	movq	%rax, %rbx
	movq	%rax, %rdi
	call	__gnat_begin_handler_v1@PLT
	movq	%rax, %rsi
	movl	$0, %edx
	movq	%rbx, %rdi
	call	__gnat_end_handler_v1@PLT
.LEHE61:
	movl	$1, %ebx
	jmp	.L196
	.cfi_endproc
.LFE10:
	.section	.gcc_except_table.main__univ__reflect_velocity_y__B1068b___finalizer.46,"a",@progbits
	.align 4
.LLSDA10:
	.byte	0xff
	.byte	0x9b
	.uleb128 .LLSDATT10-.LLSDATTD10
.LLSDATTD10:
	.byte	0x1
	.uleb128 .LLSDACSE10-.LLSDACSB10
.LLSDACSB10:
	.uleb128 .LEHB59-.LFB10
	.uleb128 .LEHE59-.LEHB59
	.uleb128 0
	.uleb128 0
	.uleb128 .LEHB60-.LFB10
	.uleb128 .LEHE60-.LEHB60
	.uleb128 .L197-.LFB10
	.uleb128 0x1
	.uleb128 .LEHB61-.LFB10
	.uleb128 .LEHE61-.LEHB61
	.uleb128 0
	.uleb128 0
.LLSDACSE10:
	.byte	0x1
	.byte	0
	.align 4
	.long	DW.ref.__gnat_others_value-.
.LLSDATT10:
	.section	.text.main__univ__reflect_velocity_y__B1068b___finalizer.46
	.size	main__univ__reflect_velocity_y__B1068b___finalizer.46, .-main__univ__reflect_velocity_y__B1068b___finalizer.46
	.section	.text.main__univ__universe_itemDA.55,"ax",@progbits
	.align 2
	.type	main__univ__universe_itemDA.55, @function
main__univ__universe_itemDA.55:
.LFB56:
	.cfi_startproc
	.cfi_personality 0x9b,DW.ref.__gnat_personality_v0
	.cfi_lsda 0x1b,.LLSDA56
	pushq	%r15
	.cfi_def_cfa_offset 16
	.cfi_offset 15, -16
	pushq	%r14
	.cfi_def_cfa_offset 24
	.cfi_offset 14, -24
	pushq	%rbx
	.cfi_def_cfa_offset 32
	.cfi_offset 3, -32
	movq	%rdi, %rbx
.LEHB62:
	call	ada__exceptions__triggered_by_abort@PLT
.LEHE62:
	movl	%eax, %r15d
	movl	$1, %esi
	movq	%rbx, %rdi
.LEHB63:
	call	spatial__positionDA@PLT
.LEHE63:
	movl	$0, %r14d
.L204:
	leaq	64(%rbx), %rdi
	movl	$1, %esi
.LEHB64:
	call	spatial__velocityDA@PLT
.LEHE64:
	jmp	.L207
.L215:
	movl	$99, %esi
	leaq	.LC66(%rip), %rdi
.LEHB65:
	call	__gnat_rcheck_PE_Finalize_Raised_Exception@PLT
.L211:
	movq	%rax, %rdi
	cmpq	$1, %rdx
	je	.L203
	call	_Unwind_Resume@PLT
.L203:
	movq	%rax, %r14
	call	__gnat_begin_handler_v1@PLT
	movq	%rax, %rsi
	movl	$0, %edx
	movq	%r14, %rdi
	call	__gnat_end_handler_v1@PLT
	movl	$1, %r14d
	jmp	.L204
.L212:
	movq	%rax, %rdi
	cmpq	$2, %rdx
	je	.L206
	call	_Unwind_Resume@PLT
.L206:
	movq	%rax, %r14
	call	__gnat_begin_handler_v1@PLT
	movq	%rax, %rsi
	movl	$0, %edx
	movq	%r14, %rdi
	call	__gnat_end_handler_v1@PLT
.LEHE65:
	movl	$1, %r14d
.L207:
	leaq	128(%rbx), %rdi
	movl	$1, %esi
.LEHB66:
	call	ada__numerics__big_numbers__big_reals__big_realDA@PLT
.LEHE66:
	jmp	.L210
.L213:
	movq	%rax, %rbx
	cmpq	$3, %rdx
	je	.L209
	movq	%rax, %rdi
.LEHB67:
	call	_Unwind_Resume@PLT
.L209:
	movq	%rax, %rdi
	call	__gnat_begin_handler_v1@PLT
	movq	%rax, %rsi
	movl	$0, %edx
	movq	%rbx, %rdi
	call	__gnat_end_handler_v1@PLT
	movl	$1, %r14d
.L210:
	movl	%r15d, %eax
	xorl	$1, %eax
	testb	%al, %r14b
	jne	.L215
.LEHE67:
	popq	%rbx
	.cfi_def_cfa_offset 24
	popq	%r14
	.cfi_def_cfa_offset 16
	popq	%r15
	.cfi_def_cfa_offset 8
	ret
	.cfi_endproc
.LFE56:
	.section	.gcc_except_table.main__univ__universe_itemDA.55,"a",@progbits
	.align 4
.LLSDA56:
	.byte	0xff
	.byte	0x9b
	.uleb128 .LLSDATT56-.LLSDATTD56
.LLSDATTD56:
	.byte	0x1
	.uleb128 .LLSDACSE56-.LLSDACSB56
.LLSDACSB56:
	.uleb128 .LEHB62-.LFB56
	.uleb128 .LEHE62-.LEHB62
	.uleb128 0
	.uleb128 0
	.uleb128 .LEHB63-.LFB56
	.uleb128 .LEHE63-.LEHB63
	.uleb128 .L211-.LFB56
	.uleb128 0x1
	.uleb128 .LEHB64-.LFB56
	.uleb128 .LEHE64-.LEHB64
	.uleb128 .L212-.LFB56
	.uleb128 0x3
	.uleb128 .LEHB65-.LFB56
	.uleb128 .LEHE65-.LEHB65
	.uleb128 0
	.uleb128 0
	.uleb128 .LEHB66-.LFB56
	.uleb128 .LEHE66-.LEHB66
	.uleb128 .L213-.LFB56
	.uleb128 0x5
	.uleb128 .LEHB67-.LFB56
	.uleb128 .LEHE67-.LEHB67
	.uleb128 0
	.uleb128 0
.LLSDACSE56:
	.byte	0x1
	.byte	0
	.byte	0x2
	.byte	0
	.byte	0x3
	.byte	0
	.align 4
	.long	DW.ref.__gnat_others_value-.
	.long	DW.ref.__gnat_others_value-.
	.long	DW.ref.__gnat_others_value-.
.LLSDATT56:
	.section	.text.main__univ__universe_itemDA.55
	.size	main__univ__universe_itemDA.55, .-main__univ__universe_itemDA.55
	.section	.text.main__univ__TitemarrayBDA.54,"ax",@progbits
	.align 2
	.type	main__univ__TitemarrayBDA.54, @function
main__univ__TitemarrayBDA.54:
.LFB63:
	.cfi_startproc
	.cfi_personality 0x9b,DW.ref.__gnat_personality_v0
	.cfi_lsda 0x1b,.LLSDA63
	pushq	%r15
	.cfi_def_cfa_offset 16
	.cfi_offset 15, -16
	pushq	%r14
	.cfi_def_cfa_offset 24
	.cfi_offset 14, -24
	pushq	%r13
	.cfi_def_cfa_offset 32
	.cfi_offset 13, -32
	pushq	%r12
	.cfi_def_cfa_offset 40
	.cfi_offset 12, -40
	pushq	%rbp
	.cfi_def_cfa_offset 48
	.cfi_offset 6, -48
	pushq	%rbx
	.cfi_def_cfa_offset 56
	.cfi_offset 3, -56
.LEHB68:
	subq	$8, %rsp
	.cfi_def_cfa_offset 64
	movq	%rdi, %r12
	movq	%rsi, %rbp
	movslq	(%rsi), %r13
	call	ada__exceptions__triggered_by_abort@PLT
	movl	%eax, %r15d
	movl	0(%rbp), %ebx
	movl	$0, %r14d
	jmp	.L218
.L217:
	movl	%r15d, %eax
	xorl	$1, %eax
	testb	%al, %r14b
	jne	.L225
	addq	$8, %rsp
	.cfi_remember_state
	.cfi_def_cfa_offset 56
	popq	%rbx
	.cfi_def_cfa_offset 48
	popq	%rbp
	.cfi_def_cfa_offset 40
	popq	%r12
	.cfi_def_cfa_offset 32
	popq	%r13
	.cfi_def_cfa_offset 24
	popq	%r14
	.cfi_def_cfa_offset 16
	popq	%r15
	.cfi_def_cfa_offset 8
	ret
.L225:
	.cfi_restore_state
	movl	$105, %esi
	leaq	.LC66(%rip), %rdi
	call	__gnat_rcheck_PE_Finalize_Raised_Exception@PLT
.L223:
	movq	%rax, %rdi
	cmpq	$1, %rdx
	je	.L221
	call	_Unwind_Resume@PLT
.L221:
	movq	%rax, %r14
	call	__gnat_begin_handler_v1@PLT
	movq	%rax, %rsi
	movl	$0, %edx
	movq	%r14, %rdi
	call	__gnat_end_handler_v1@PLT
.LEHE68:
	movl	$1, %r14d
.L222:
	addl	$1, %ebx
.L218:
	cmpl	%ebx, 4(%rbp)
	jl	.L217
	movslq	%ebx, %rax
	subq	%r13, %rax
	leaq	(%rax,%rax,4), %rdi
	salq	$5, %rdi
	addq	%r12, %rdi
	movl	$1, %esi
.LEHB69:
	call	main__univ__universe_itemDA.55
.LEHE69:
	jmp	.L222
	.cfi_endproc
.LFE63:
	.section	.gcc_except_table.main__univ__TitemarrayBDA.54,"a",@progbits
	.align 4
.LLSDA63:
	.byte	0xff
	.byte	0x9b
	.uleb128 .LLSDATT63-.LLSDATTD63
.LLSDATTD63:
	.byte	0x1
	.uleb128 .LLSDACSE63-.LLSDACSB63
.LLSDACSB63:
	.uleb128 .LEHB68-.LFB63
	.uleb128 .LEHE68-.LEHB68
	.uleb128 0
	.uleb128 0
	.uleb128 .LEHB69-.LFB63
	.uleb128 .LEHE69-.LEHB69
	.uleb128 .L223-.LFB63
	.uleb128 0x1
.LLSDACSE63:
	.byte	0x1
	.byte	0
	.align 4
	.long	DW.ref.__gnat_others_value-.
.LLSDATT63:
	.section	.text.main__univ__TitemarrayBDA.54
	.size	main__univ__TitemarrayBDA.54, .-main__univ__TitemarrayBDA.54
	.section	.text.main__univ__universeDA.53,"ax",@progbits
	.align 2
	.type	main__univ__universeDA.53, @function
main__univ__universeDA.53:
.LFB68:
	.cfi_startproc
	.cfi_personality 0x9b,DW.ref.__gnat_personality_v0
	.cfi_lsda 0x1b,.LLSDA68
	pushq	%r14
	.cfi_def_cfa_offset 16
	.cfi_offset 14, -16
	pushq	%rbx
	.cfi_def_cfa_offset 24
	.cfi_offset 3, -24
.LEHB70:
	subq	$8, %rsp
	.cfi_def_cfa_offset 32
	movq	%rdi, %rbx
	call	ada__exceptions__triggered_by_abort@PLT
.LEHE70:
	movl	%eax, %r14d
	movq	%rbx, %rdi
	movl	$1, %edx
	leaq	.LC7(%rip), %rsi
.LEHB71:
	call	main__univ__TitemarrayBDA.54
.LEHE71:
	movl	$0, %eax
.L230:
	movl	%r14d, %edx
	xorl	$1, %edx
	testb	%al, %dl
	jne	.L233
.LEHB72:
	addq	$8, %rsp
	.cfi_remember_state
	.cfi_def_cfa_offset 24
	popq	%rbx
	.cfi_def_cfa_offset 16
	popq	%r14
	.cfi_def_cfa_offset 8
	ret
.L233:
	.cfi_restore_state
	movl	$108, %esi
	leaq	.LC66(%rip), %rdi
	call	__gnat_rcheck_PE_Finalize_Raised_Exception@PLT
.L231:
	movq	%rax, %rdi
	cmpq	$1, %rdx
	je	.L229
	call	_Unwind_Resume@PLT
.L229:
	movq	%rax, %rbx
	movq	%rax, %rdi
	call	__gnat_begin_handler_v1@PLT
	movq	%rax, %rsi
	movl	$0, %edx
	movq	%rbx, %rdi
	call	__gnat_end_handler_v1@PLT
.LEHE72:
	movl	$1, %eax
	jmp	.L230
	.cfi_endproc
.LFE68:
	.section	.gcc_except_table.main__univ__universeDA.53,"a",@progbits
	.align 4
.LLSDA68:
	.byte	0xff
	.byte	0x9b
	.uleb128 .LLSDATT68-.LLSDATTD68
.LLSDATTD68:
	.byte	0x1
	.uleb128 .LLSDACSE68-.LLSDACSB68
.LLSDACSB68:
	.uleb128 .LEHB70-.LFB68
	.uleb128 .LEHE70-.LEHB70
	.uleb128 0
	.uleb128 0
	.uleb128 .LEHB71-.LFB68
	.uleb128 .LEHE71-.LEHB71
	.uleb128 .L231-.LFB68
	.uleb128 0x1
	.uleb128 .LEHB72-.LFB68
	.uleb128 .LEHE72-.LEHB72
	.uleb128 0
	.uleb128 0
.LLSDACSE68:
	.byte	0x1
	.byte	0
	.align 4
	.long	DW.ref.__gnat_others_value-.
.LLSDATT68:
	.section	.text.main__univ__universeDA.53
	.size	main__univ__universeDA.53, .-main__univ__universeDA.53
	.section	.text.main__univ__init__B928b___finalizer.57,"ax",@progbits
	.align 2
	.type	main__univ__init__B928b___finalizer.57, @function
main__univ__init__B928b___finalizer.57:
.LFB4:
	.cfi_startproc
	.cfi_personality 0x9b,DW.ref.__gnat_personality_v0
	.cfi_lsda 0x1b,.LLSDA4
	pushq	%r14
	.cfi_def_cfa_offset 16
	.cfi_offset 14, -16
	pushq	%rbx
	.cfi_def_cfa_offset 24
	.cfi_offset 3, -24
.LEHB73:
	subq	$8, %rsp
	.cfi_def_cfa_offset 32
	movq	%r10, %rbx
	call	ada__exceptions__triggered_by_abort@PLT
	movl	%eax, %r14d
	call	*system__soft_links__abort_defer(%rip)
.LEHE73:
	leaq	main__univ__universeFD.6(%rip), %rsi
	movq	%rbx, %rdi
.LEHB74:
	call	system__finalization_primitives__finalize_object@PLT
.LEHE74:
	movl	$0, %ebx
.L238:
.LEHB75:
	call	*system__soft_links__abort_undefer(%rip)
	movl	%r14d, %eax
	xorl	$1, %eax
	testb	%al, %bl
	jne	.L241
	addq	$8, %rsp
	.cfi_remember_state
	.cfi_def_cfa_offset 24
	popq	%rbx
	.cfi_def_cfa_offset 16
	popq	%r14
	.cfi_def_cfa_offset 8
	ret
.L241:
	.cfi_restore_state
	movl	$7, %esi
	leaq	.LC69(%rip), %rdi
	call	__gnat_rcheck_PE_Finalize_Raised_Exception@PLT
.L239:
	movq	%rax, %rdi
	cmpq	$1, %rdx
	je	.L237
	call	_Unwind_Resume@PLT
.L237:
	movq	%rax, %rbx
	movq	%rax, %rdi
	call	__gnat_begin_handler_v1@PLT
	movq	%rax, %rsi
	movl	$0, %edx
	movq	%rbx, %rdi
	call	__gnat_end_handler_v1@PLT
.LEHE75:
	movl	$1, %ebx
	jmp	.L238
	.cfi_endproc
.LFE4:
	.section	.gcc_except_table.main__univ__init__B928b___finalizer.57,"a",@progbits
	.align 4
.LLSDA4:
	.byte	0xff
	.byte	0x9b
	.uleb128 .LLSDATT4-.LLSDATTD4
.LLSDATTD4:
	.byte	0x1
	.uleb128 .LLSDACSE4-.LLSDACSB4
.LLSDACSB4:
	.uleb128 .LEHB73-.LFB4
	.uleb128 .LEHE73-.LEHB73
	.uleb128 0
	.uleb128 0
	.uleb128 .LEHB74-.LFB4
	.uleb128 .LEHE74-.LEHB74
	.uleb128 .L239-.LFB4
	.uleb128 0x1
	.uleb128 .LEHB75-.LFB4
	.uleb128 .LEHE75-.LEHB75
	.uleb128 0
	.uleb128 0
.LLSDACSE4:
	.byte	0x1
	.byte	0
	.align 4
	.long	DW.ref.__gnat_others_value-.
.LLSDATT4:
	.section	.text.main__univ__init__B928b___finalizer.57
	.size	main__univ__init__B928b___finalizer.57, .-main__univ__init__B928b___finalizer.57
	.section	.text.main__univ__add_item__B1038b___finalizer.60,"ax",@progbits
	.align 2
	.type	main__univ__add_item__B1038b___finalizer.60, @function
main__univ__add_item__B1038b___finalizer.60:
.LFB6:
	.cfi_startproc
	.cfi_personality 0x9b,DW.ref.__gnat_personality_v0
	.cfi_lsda 0x1b,.LLSDA6
	pushq	%r14
	.cfi_def_cfa_offset 16
	.cfi_offset 14, -16
	pushq	%rbx
	.cfi_def_cfa_offset 24
	.cfi_offset 3, -24
.LEHB76:
	subq	$8, %rsp
	.cfi_def_cfa_offset 32
	movq	%r10, %rbx
	call	ada__exceptions__triggered_by_abort@PLT
	movl	%eax, %r14d
	call	*system__soft_links__abort_defer(%rip)
.LEHE76:
	leaq	main__univ__universe_itemFD.59(%rip), %rsi
	movq	%rbx, %rdi
.LEHB77:
	call	system__finalization_primitives__finalize_object@PLT
.LEHE77:
	movl	$0, %ebx
.L246:
.LEHB78:
	call	*system__soft_links__abort_undefer(%rip)
	movl	%r14d, %eax
	xorl	$1, %eax
	testb	%al, %bl
	jne	.L249
	addq	$8, %rsp
	.cfi_remember_state
	.cfi_def_cfa_offset 24
	popq	%rbx
	.cfi_def_cfa_offset 16
	popq	%r14
	.cfi_def_cfa_offset 8
	ret
.L249:
	.cfi_restore_state
	movl	$29, %esi
	leaq	.LC69(%rip), %rdi
	call	__gnat_rcheck_PE_Finalize_Raised_Exception@PLT
.L247:
	movq	%rax, %rdi
	cmpq	$1, %rdx
	je	.L245
	call	_Unwind_Resume@PLT
.L245:
	movq	%rax, %rbx
	movq	%rax, %rdi
	call	__gnat_begin_handler_v1@PLT
	movq	%rax, %rsi
	movl	$0, %edx
	movq	%rbx, %rdi
	call	__gnat_end_handler_v1@PLT
.LEHE78:
	movl	$1, %ebx
	jmp	.L246
	.cfi_endproc
.LFE6:
	.section	.gcc_except_table.main__univ__add_item__B1038b___finalizer.60,"a",@progbits
	.align 4
.LLSDA6:
	.byte	0xff
	.byte	0x9b
	.uleb128 .LLSDATT6-.LLSDATTD6
.LLSDATTD6:
	.byte	0x1
	.uleb128 .LLSDACSE6-.LLSDACSB6
.LLSDACSB6:
	.uleb128 .LEHB76-.LFB6
	.uleb128 .LEHE76-.LEHB76
	.uleb128 0
	.uleb128 0
	.uleb128 .LEHB77-.LFB6
	.uleb128 .LEHE77-.LEHB77
	.uleb128 .L247-.LFB6
	.uleb128 0x1
	.uleb128 .LEHB78-.LFB6
	.uleb128 .LEHE78-.LEHB78
	.uleb128 0
	.uleb128 0
.LLSDACSE6:
	.byte	0x1
	.byte	0
	.align 4
	.long	DW.ref.__gnat_others_value-.
.LLSDATT6:
	.section	.text.main__univ__add_item__B1038b___finalizer.60
	.size	main__univ__add_item__B1038b___finalizer.60, .-main__univ__add_item__B1038b___finalizer.60
	.section	.rodata
.LC71:
	.ascii	"display.adb"
	.zero	1
	.section	.text.main__disp__capture__L_1__B1534b___finalizer.77,"ax",@progbits
	.align 2
	.type	main__disp__capture__L_1__B1534b___finalizer.77, @function
main__disp__capture__L_1__B1534b___finalizer.77:
.LFB49:
	.cfi_startproc
	.cfi_personality 0x9b,DW.ref.__gnat_personality_v0
	.cfi_lsda 0x1b,.LLSDA49
	pushq	%r14
	.cfi_def_cfa_offset 16
	.cfi_offset 14, -16
	pushq	%rbx
	.cfi_def_cfa_offset 24
	.cfi_offset 3, -24
.LEHB79:
	subq	$8, %rsp
	.cfi_def_cfa_offset 32
	movq	%r10, %rbx
	call	ada__exceptions__triggered_by_abort@PLT
	movl	%eax, %r14d
	call	*system__soft_links__abort_defer(%rip)
.LEHE79:
	addq	$48, %rbx
	movq	%rbx, %rdi
	movq	spatial__positionFD@GOTPCREL(%rip), %rsi
.LEHB80:
	call	system__finalization_primitives__finalize_object@PLT
.LEHE80:
	movl	$0, %ebx
.L254:
.LEHB81:
	call	*system__soft_links__abort_undefer(%rip)
	movl	%r14d, %eax
	xorl	$1, %eax
	testb	%al, %bl
	jne	.L257
	addq	$8, %rsp
	.cfi_remember_state
	.cfi_def_cfa_offset 24
	popq	%rbx
	.cfi_def_cfa_offset 16
	popq	%r14
	.cfi_def_cfa_offset 8
	ret
.L257:
	.cfi_restore_state
	movl	$48, %esi
	leaq	.LC71(%rip), %rdi
	call	__gnat_rcheck_PE_Finalize_Raised_Exception@PLT
.L255:
	movq	%rax, %rdi
	cmpq	$1, %rdx
	je	.L253
	call	_Unwind_Resume@PLT
.L253:
	movq	%rax, %rbx
	movq	%rax, %rdi
	call	__gnat_begin_handler_v1@PLT
	movq	%rax, %rsi
	movl	$0, %edx
	movq	%rbx, %rdi
	call	__gnat_end_handler_v1@PLT
.LEHE81:
	movl	$1, %ebx
	jmp	.L254
	.cfi_endproc
.LFE49:
	.section	.gcc_except_table.main__disp__capture__L_1__B1534b___finalizer.77,"a",@progbits
	.align 4
.LLSDA49:
	.byte	0xff
	.byte	0x9b
	.uleb128 .LLSDATT49-.LLSDATTD49
.LLSDATTD49:
	.byte	0x1
	.uleb128 .LLSDACSE49-.LLSDACSB49
.LLSDACSB49:
	.uleb128 .LEHB79-.LFB49
	.uleb128 .LEHE79-.LEHB79
	.uleb128 0
	.uleb128 0
	.uleb128 .LEHB80-.LFB49
	.uleb128 .LEHE80-.LEHB80
	.uleb128 .L255-.LFB49
	.uleb128 0x1
	.uleb128 .LEHB81-.LFB49
	.uleb128 .LEHE81-.LEHB81
	.uleb128 0
	.uleb128 0
.LLSDACSE49:
	.byte	0x1
	.byte	0
	.align 4
	.long	DW.ref.__gnat_others_value-.
.LLSDATT49:
	.section	.text.main__disp__capture__L_1__B1534b___finalizer.77
	.size	main__disp__capture__L_1__B1534b___finalizer.77, .-main__disp__capture__L_1__B1534b___finalizer.77
	.section	.text.main__univ__universeDF.83,"ax",@progbits
	.align 2
	.type	main__univ__universeDF.83, @function
main__univ__universeDF.83:
.LFB69:
	.cfi_startproc
	.cfi_personality 0x9b,DW.ref.__gnat_personality_v0
	.cfi_lsda 0x1b,.LLSDA69
	pushq	%r14
	.cfi_def_cfa_offset 16
	.cfi_offset 14, -16
	pushq	%rbx
	.cfi_def_cfa_offset 24
	.cfi_offset 3, -24
.LEHB82:
	subq	$8, %rsp
	.cfi_def_cfa_offset 32
	movq	%rdi, %rbx
	call	ada__exceptions__triggered_by_abort@PLT
.LEHE82:
	movl	%eax, %r14d
	movq	%rbx, %rdi
	movl	$1, %edx
	leaq	.LC7(%rip), %rsi
.LEHB83:
	call	main__univ__TitemarrayBDF.17
.LEHE83:
	movl	$0, %eax
.L262:
	movl	%r14d, %edx
	xorl	$1, %edx
	testb	%al, %dl
	jne	.L265
.LEHB84:
	addq	$8, %rsp
	.cfi_remember_state
	.cfi_def_cfa_offset 24
	popq	%rbx
	.cfi_def_cfa_offset 16
	popq	%r14
	.cfi_def_cfa_offset 8
	ret
.L265:
	.cfi_restore_state
	movl	$108, %esi
	leaq	.LC66(%rip), %rdi
	call	__gnat_rcheck_PE_Finalize_Raised_Exception@PLT
.L263:
	movq	%rax, %rdi
	cmpq	$1, %rdx
	je	.L261
	call	_Unwind_Resume@PLT
.L261:
	movq	%rax, %rbx
	movq	%rax, %rdi
	call	__gnat_begin_handler_v1@PLT
	movq	%rax, %rsi
	movl	$0, %edx
	movq	%rbx, %rdi
	call	__gnat_end_handler_v1@PLT
.LEHE84:
	movl	$1, %eax
	jmp	.L262
	.cfi_endproc
.LFE69:
	.section	.gcc_except_table.main__univ__universeDF.83,"a",@progbits
	.align 4
.LLSDA69:
	.byte	0xff
	.byte	0x9b
	.uleb128 .LLSDATT69-.LLSDATTD69
.LLSDATTD69:
	.byte	0x1
	.uleb128 .LLSDACSE69-.LLSDACSB69
.LLSDACSB69:
	.uleb128 .LEHB82-.LFB69
	.uleb128 .LEHE82-.LEHB82
	.uleb128 0
	.uleb128 0
	.uleb128 .LEHB83-.LFB69
	.uleb128 .LEHE83-.LEHB83
	.uleb128 .L263-.LFB69
	.uleb128 0x1
	.uleb128 .LEHB84-.LFB69
	.uleb128 .LEHE84-.LEHB84
	.uleb128 0
	.uleb128 0
.LLSDACSE69:
	.byte	0x1
	.byte	0
	.align 4
	.long	DW.ref.__gnat_others_value-.
.LLSDATT69:
	.section	.text.main__univ__universeDF.83
	.size	main__univ__universeDF.83, .-main__univ__universeDF.83
	.section	.text.main__univ__universeFD.6,"ax",@progbits
	.align 2
	.type	main__univ__universeFD.6, @function
main__univ__universeFD.6:
.LFB70:
	.cfi_startproc
	subq	$8, %rsp
	.cfi_def_cfa_offset 16
	movl	$1, %esi
	call	main__univ__universeDF.83
	addq	$8, %rsp
	.cfi_def_cfa_offset 8
	ret
	.cfi_endproc
.LFE70:
	.size	main__univ__universeFD.6, .-main__univ__universeFD.6
	.section	.text.main__univ__universe_itemIP.11,"ax",@progbits
	.align 2
	.type	main__univ__universe_itemIP.11, @function
main__univ__universe_itemIP.11:
.LFB59:
	.cfi_startproc
	.cfi_personality 0x9b,DW.ref.__gnat_personality_v0
	.cfi_lsda 0x1b,.LLSDA59
	pushq	%r14
	.cfi_def_cfa_offset 16
	.cfi_offset 14, -16
	pushq	%rbp
	.cfi_def_cfa_offset 24
	.cfi_offset 6, -24
	pushq	%rbx
	.cfi_def_cfa_offset 32
	.cfi_offset 3, -32
.LEHB85:
	subq	$16, %rsp
	.cfi_def_cfa_offset 48
.LEHE85:
	movq	%rdi, %rbx
	leaq	48(%rsp), %rax
	movq	%rax, 8(%rsp)
	movl	$0, (%rsp)
.LEHB86:
	call	vector__vectorIP@PLT
	movq	%rbx, %rdi
	call	spatial__positionDI@PLT
	movl	(%rsp), %eax
	cmpl	$2147483647, %eax
	je	.L279
	addl	$1, %eax
	movl	%eax, (%rsp)
	leaq	64(%rbx), %rbp
	movq	%rbp, %rdi
	call	vector__vectorIP@PLT
	jmp	.L280
.L279:
	movl	$100, %esi
	leaq	.LC66(%rip), %rdi
	call	__gnat_rcheck_CE_Overflow_Check@PLT
.LEHE86:
.L275:
	movq	%rax, %rbp
	cmpq	$1, %rdx
	je	.L273
	movq	%rax, %rdi
.LEHB87:
	call	_Unwind_Resume@PLT
.LEHE87:
.L280:
	movq	%rbp, %rdi
.LEHB88:
	call	spatial__velocityDI@PLT
	movl	(%rsp), %eax
	cmpl	$2147483647, %eax
	je	.L281
	addl	$1, %eax
	movl	%eax, (%rsp)
	leaq	128(%rbx), %rbp
	movq	%rbp, %rdi
	call	ada__numerics__big_numbers__big_reals__big_realIP@PLT
	jmp	.L282
.L281:
	movl	$101, %esi
	leaq	.LC66(%rip), %rdi
	call	__gnat_rcheck_CE_Overflow_Check@PLT
.L282:
	movq	%rbp, %rdi
	call	ada__numerics__big_numbers__big_reals__big_realDI@PLT
.LEHE88:
	movl	(%rsp), %eax
	cmpl	$2147483647, %eax
	je	.L283
	addl	$1, %eax
	movl	%eax, (%rsp)
.LEHB89:
	addq	$16, %rsp
	.cfi_remember_state
	.cfi_def_cfa_offset 32
.LEHE89:
	popq	%rbx
	.cfi_def_cfa_offset 24
	popq	%rbp
	.cfi_def_cfa_offset 16
	popq	%r14
	.cfi_def_cfa_offset 8
	ret
.L283:
	.cfi_restore_state
	movl	$102, %esi
	leaq	.LC66(%rip), %rdi
.LEHB90:
	call	__gnat_rcheck_CE_Overflow_Check@PLT
.LEHE90:
.L273:
	movq	%rax, %rdi
	call	__gnat_begin_handler_v1@PLT
	movq	%rax, %r14
	movq	%rsp, %r10
	movl	$0, %esi
	movq	%rbx, %rdi
.LEHB91:
	call	main__univ__universe_itemIP___finalizer.12
	movq	%rbp, %rdi
	call	__gnat_reraise_zcx@PLT
.LEHE91:
.L276:
	movq	%rax, %rbx
	movq	%rax, %rdx
	movq	%r14, %rsi
	movq	%rbp, %rdi
.LEHB92:
	call	__gnat_end_handler_v1@PLT
	movq	%rbx, %rdi
	call	_Unwind_Resume@PLT
.LEHE92:
	.cfi_endproc
.LFE59:
	.section	.gcc_except_table.main__univ__universe_itemIP.11,"a",@progbits
	.align 4
.LLSDA59:
	.byte	0xff
	.byte	0x9b
	.uleb128 .LLSDATT59-.LLSDATTD59
.LLSDATTD59:
	.byte	0x1
	.uleb128 .LLSDACSE59-.LLSDACSB59
.LLSDACSB59:
	.uleb128 .LEHB85-.LFB59
	.uleb128 .LEHE85-.LEHB85
	.uleb128 0
	.uleb128 0
	.uleb128 .LEHB86-.LFB59
	.uleb128 .LEHE86-.LEHB86
	.uleb128 .L275-.LFB59
	.uleb128 0x1
	.uleb128 .LEHB87-.LFB59
	.uleb128 .LEHE87-.LEHB87
	.uleb128 0
	.uleb128 0
	.uleb128 .LEHB88-.LFB59
	.uleb128 .LEHE88-.LEHB88
	.uleb128 .L275-.LFB59
	.uleb128 0x1
	.uleb128 .LEHB89-.LFB59
	.uleb128 .LEHE89-.LEHB89
	.uleb128 0
	.uleb128 0
	.uleb128 .LEHB90-.LFB59
	.uleb128 .LEHE90-.LEHB90
	.uleb128 .L275-.LFB59
	.uleb128 0x1
	.uleb128 .LEHB91-.LFB59
	.uleb128 .LEHE91-.LEHB91
	.uleb128 .L276-.LFB59
	.uleb128 0
	.uleb128 .LEHB92-.LFB59
	.uleb128 .LEHE92-.LEHB92
	.uleb128 0
	.uleb128 0
.LLSDACSE59:
	.byte	0x1
	.byte	0
	.align 4
	.long	DW.ref.__gnat_others_value-.
.LLSDATT59:
	.section	.text.main__univ__universe_itemIP.11
	.size	main__univ__universe_itemIP.11, .-main__univ__universe_itemIP.11
	.section	.text.main__univ__TitemarrayBIP.10,"ax",@progbits
	.align 2
	.type	main__univ__TitemarrayBIP.10, @function
main__univ__TitemarrayBIP.10:
.LFB61:
	.cfi_startproc
	pushq	%r13
	.cfi_def_cfa_offset 16
	.cfi_offset 13, -16
	pushq	%r12
	.cfi_def_cfa_offset 24
	.cfi_offset 12, -24
	pushq	%rbp
	.cfi_def_cfa_offset 32
	.cfi_offset 6, -32
	pushq	%rbx
	.cfi_def_cfa_offset 40
	.cfi_offset 3, -40
	subq	$8, %rsp
	.cfi_def_cfa_offset 48
	movq	%rdi, %r12
	movq	%rsi, %rbp
	movl	(%rsi), %ebx
	movslq	%ebx, %r13
.L286:
	cmpl	%ebx, 4(%rbp)
	jl	.L284
	movslq	%ebx, %rax
	subq	%r13, %rax
	leaq	(%rax,%rax,4), %rdi
	salq	$5, %rdi
	addq	%r12, %rdi
	call	main__univ__universe_itemIP.11
	addl	$1, %ebx
	jmp	.L286
.L284:
	addq	$8, %rsp
	.cfi_def_cfa_offset 40
	popq	%rbx
	.cfi_def_cfa_offset 32
	popq	%rbp
	.cfi_def_cfa_offset 24
	popq	%r12
	.cfi_def_cfa_offset 16
	popq	%r13
	.cfi_def_cfa_offset 8
	ret
	.cfi_endproc
.LFE61:
	.size	main__univ__TitemarrayBIP.10, .-main__univ__TitemarrayBIP.10
	.section	.text.main__univ__universeIP.9,"ax",@progbits
	.align 2
	.type	main__univ__universeIP.9, @function
main__univ__universeIP.9:
.LFB71:
	.cfi_startproc
	.cfi_personality 0x9b,DW.ref.__gnat_personality_v0
	.cfi_lsda 0x1b,.LLSDA71
	pushq	%r15
	.cfi_def_cfa_offset 16
	.cfi_offset 15, -16
	pushq	%r14
	.cfi_def_cfa_offset 24
	.cfi_offset 14, -24
	pushq	%rbx
	.cfi_def_cfa_offset 32
	.cfi_offset 3, -32
.LEHB93:
	subq	$16, %rsp
	.cfi_def_cfa_offset 48
.LEHE93:
	movq	%rdi, %rbx
	leaq	48(%rsp), %rcx
	movq	%rcx, 8(%rsp)
	movl	$0, (%rsp)
	leaq	.LC7(%rip), %rsi
.LEHB94:
	call	main__univ__TitemarrayBIP.10
.LEHE94:
	movl	(%rsp), %eax
	cmpl	$2147483647, %eax
	je	.L297
	addl	$1, %eax
	movl	%eax, (%rsp)
.LEHB95:
	addq	$16, %rsp
	.cfi_remember_state
	.cfi_def_cfa_offset 32
.LEHE95:
	popq	%rbx
	.cfi_def_cfa_offset 24
	popq	%r14
	.cfi_def_cfa_offset 16
	popq	%r15
	.cfi_def_cfa_offset 8
	ret
.L297:
	.cfi_restore_state
	movl	$109, %esi
	leaq	.LC66(%rip), %rdi
.LEHB96:
	call	__gnat_rcheck_CE_Overflow_Check@PLT
.LEHE96:
.L293:
	movq	%rax, %r14
	cmpq	$1, %rdx
	je	.L291
	movq	%rax, %rdi
.LEHB97:
	call	_Unwind_Resume@PLT
.LEHE97:
.L291:
	movq	%rax, %rdi
	call	__gnat_begin_handler_v1@PLT
	movq	%rax, %r15
	movq	%rsp, %r10
	movl	$0, %esi
	movq	%rbx, %rdi
.LEHB98:
	call	main__univ__universeIP___finalizer.16
	movq	%r14, %rdi
	call	__gnat_reraise_zcx@PLT
.LEHE98:
.L294:
	movq	%rax, %rbx
	movq	%rax, %rdx
	movq	%r15, %rsi
	movq	%r14, %rdi
.LEHB99:
	call	__gnat_end_handler_v1@PLT
	movq	%rbx, %rdi
	call	_Unwind_Resume@PLT
.LEHE99:
	.cfi_endproc
.LFE71:
	.section	.gcc_except_table.main__univ__universeIP.9,"a",@progbits
	.align 4
.LLSDA71:
	.byte	0xff
	.byte	0x9b
	.uleb128 .LLSDATT71-.LLSDATTD71
.LLSDATTD71:
	.byte	0x1
	.uleb128 .LLSDACSE71-.LLSDACSB71
.LLSDACSB71:
	.uleb128 .LEHB93-.LFB71
	.uleb128 .LEHE93-.LEHB93
	.uleb128 0
	.uleb128 0
	.uleb128 .LEHB94-.LFB71
	.uleb128 .LEHE94-.LEHB94
	.uleb128 .L293-.LFB71
	.uleb128 0x1
	.uleb128 .LEHB95-.LFB71
	.uleb128 .LEHE95-.LEHB95
	.uleb128 0
	.uleb128 0
	.uleb128 .LEHB96-.LFB71
	.uleb128 .LEHE96-.LEHB96
	.uleb128 .L293-.LFB71
	.uleb128 0x1
	.uleb128 .LEHB97-.LFB71
	.uleb128 .LEHE97-.LEHB97
	.uleb128 0
	.uleb128 0
	.uleb128 .LEHB98-.LFB71
	.uleb128 .LEHE98-.LEHB98
	.uleb128 .L294-.LFB71
	.uleb128 0
	.uleb128 .LEHB99-.LFB71
	.uleb128 .LEHE99-.LEHB99
	.uleb128 0
	.uleb128 0
.LLSDACSE71:
	.byte	0x1
	.byte	0
	.align 4
	.long	DW.ref.__gnat_others_value-.
.LLSDATT71:
	.section	.text.main__univ__universeIP.9
	.size	main__univ__universeIP.9, .-main__univ__universeIP.9
	.section	.text.main__fc__conv__to_big_integerXn.20,"ax",@progbits
	.align 2
	.type	main__fc__conv__to_big_integerXn.20, @function
main__fc__conv__to_big_integerXn.20:
.LVL0:
.LFB16:
	.file 1 "/home/vscode/.local/libexec/spark/lib/gcc/x86_64-pc-linux-gnu/15.1.0/adainclude/a-nbnbin.adb"
	.loc 1 205 7 view -0
	.cfi_startproc
	.cfi_personality 0x9b,DW.ref.__gnat_personality_v0
	.cfi_lsda 0x1b,.LLSDA16
	.loc 1 205 7 is_stmt 0 view .LVU1
	pushq	%r15
	.cfi_def_cfa_offset 16
	.cfi_offset 15, -16
	pushq	%r14
	.cfi_def_cfa_offset 24
	.cfi_offset 14, -24
	pushq	%rbx
	.cfi_def_cfa_offset 32
	.cfi_offset 3, -32
.LEHB100:
	subq	$48, %rsp
	.cfi_def_cfa_offset 80
.LEHE100:
	movq	%rdi, %rbx
	movq	%rsi, %r14
	.loc 1 205 7 is_stmt 1 discriminator 1 view .LVU2
	leaq	80(%rsp), %rax
	movq	%rax, 24(%rsp)
.LVL1:
	.loc 1 205 7 is_stmt 0 discriminator 1 view .LVU3
	movq	$0, (%rsp)
	movq	$0, 8(%rsp)
	movq	$0, 16(%rsp)
.LVL2:
.LEHB101:
	.loc 1 206 10 is_stmt 1 view .LVU4
	call	*system__soft_links__abort_defer(%rip)
.LVL3:
	.loc 1 206 10 is_stmt 0 discriminator 3 view .LVU5
	leaq	32(%rsp), %rdi
	call	ada__numerics__big_numbers__big_integers__big_integerIP@PLT
.LVL4:
.LEHE101:
.LBB1414:
	.loc 1 206 10 discriminator 6 view .LVU6
	leaq	32(%rsp), %rdi
.LEHB102:
	call	ada__numerics__big_numbers__big_integers__big_integerDI@PLT
.LVL5:
	.loc 1 206 10 discriminator 9 view .LVU7
	movq	%rsp, %rdx
	leaq	32(%rsp), %rdi
	movq	ada__numerics__big_numbers__big_integers__big_integerFD@GOTPCREL(%rip), %rsi
	call	system__finalization_primitives__attach_object_to_node@PLT
.LVL6:
.LEHE102:
.LEHB103:
.LBE1414:
	.loc 1 206 0 is_stmt 1 discriminator 12 view .LVU8
	call	system__standard_library__abort_undefer_direct@PLT
.LVL7:
	.loc 1 208 10 view .LVU9
	movq	%r14, %rdi
	movl	$0, %esi
	call	ada__numerics__big_numbers__big_integers__bignums__to_bignum__5Xnnn@PLT
.LVL8:
.LBB1415:
.LBB1416:
	.loc 1 92 19 view .LVU10
	movq	%rax, 40(%rsp)
.LVL9:
	.loc 1 92 19 is_stmt 0 view .LVU11
.LBE1416:
.LBE1415:
	.loc 1 209 10 is_stmt 1 view .LVU12
	movdqa	32(%rsp), %xmm0
	movups	%xmm0, (%rbx)
	movl	$1, %esi
	movq	%rbx, %rdi
	call	ada__numerics__big_numbers__big_integers__big_integerDA@PLT
.LVL10:
	jmp	.L311
.L306:
	.loc 1 206 10 discriminator 11 view .LVU13
	movq	%rax, %r14
.LVL11:
	.loc 1 206 10 is_stmt 0 discriminator 11 view .LVU14
	cmpq	$1, %rdx
	je	.L300
	movq	%rax, %rbx
.LVL12:
.L301:
	.loc 1 206 0 is_stmt 1 discriminator 24 view .LVU15
	call	system__standard_library__abort_undefer_direct@PLT
.LVL13:
.LEHE103:
	jmp	.L303
.LVL14:
.L300:
.LBB1417:
	.loc 1 206 10 discriminator 15 view .LVU16
	movq	%rax, %rdi
	call	__gnat_begin_handler_v1@PLT
.LVL15:
	.loc 1 206 10 is_stmt 0 discriminator 15 view .LVU17
	movq	%rax, %r15
.LVL16:
	.loc 1 206 10 discriminator 16 view .LVU18
	leaq	32(%rsp), %rdi
	movl	$0, %esi
.LEHB104:
	call	ada__numerics__big_numbers__big_integers__big_integerDF@PLT
.LVL17:
	.loc 1 206 10 discriminator 19 view .LVU19
	movq	%r14, %rdi
	call	__gnat_reraise_zcx@PLT
.LVL18:
.LEHE104:
.L307:
	.loc 1 206 10 discriminator 21 view .LVU20
	movq	%rax, %rbx
.LVL19:
	.loc 1 206 10 discriminator 22 view .LVU21
	movq	%rax, %rdx
	movq	%r15, %rsi
	movq	%r14, %rdi
.LEHB105:
	call	__gnat_end_handler_v1@PLT
.LVL20:
.LEHE105:
	.loc 1 206 10 discriminator 22 view .LVU22
	jmp	.L301
.LVL21:
.L305:
	.loc 1 206 10 discriminator 22 view .LVU23
.LBE1417:
	.loc 1 206 0 is_stmt 1 discriminator 24 view .LVU24
	movq	%rax, %rbx
	jmp	.L301
.L304:
	.loc 1 210 0 discriminator 4 view .LVU25
	movq	%rax, %rbx
.L303:
	movq	%rsp, %r10
.LEHB106:
	call	main__fc__conv__to_big_integer___finalizer.21
.LVL22:
	movq	%rbx, %rdi
	call	_Unwind_Resume@PLT
.LVL23:
.L311:
	.loc 1 210 0 is_stmt 0 view .LVU26
	movq	%rsp, %r10
	call	main__fc__conv__to_big_integer___finalizer.21
.LVL24:
	.loc 1 210 11 is_stmt 1 view .LVU27
	movq	%rbx, %rax
	addq	$48, %rsp
	.cfi_def_cfa_offset 32
.LEHE106:
	popq	%rbx
	.cfi_def_cfa_offset 24
.LVL25:
	.loc 1 210 11 is_stmt 0 view .LVU28
	popq	%r14
	.cfi_def_cfa_offset 16
.LVL26:
	.loc 1 210 11 view .LVU29
	popq	%r15
	.cfi_def_cfa_offset 8
	ret
	.cfi_endproc
.LFE16:
	.section	.gcc_except_table.main__fc__conv__to_big_integerXn.20,"a",@progbits
	.align 4
.LLSDA16:
	.byte	0xff
	.byte	0x9b
	.uleb128 .LLSDATT16-.LLSDATTD16
.LLSDATTD16:
	.byte	0x1
	.uleb128 .LLSDACSE16-.LLSDACSB16
.LLSDACSB16:
	.uleb128 .LEHB100-.LFB16
	.uleb128 .LEHE100-.LEHB100
	.uleb128 0
	.uleb128 0
	.uleb128 .LEHB101-.LFB16
	.uleb128 .LEHE101-.LEHB101
	.uleb128 .L305-.LFB16
	.uleb128 0
	.uleb128 .LEHB102-.LFB16
	.uleb128 .LEHE102-.LEHB102
	.uleb128 .L306-.LFB16
	.uleb128 0x3
	.uleb128 .LEHB103-.LFB16
	.uleb128 .LEHE103-.LEHB103
	.uleb128 .L304-.LFB16
	.uleb128 0
	.uleb128 .LEHB104-.LFB16
	.uleb128 .LEHE104-.LEHB104
	.uleb128 .L307-.LFB16
	.uleb128 0
	.uleb128 .LEHB105-.LFB16
	.uleb128 .LEHE105-.LEHB105
	.uleb128 .L305-.LFB16
	.uleb128 0
	.uleb128 .LEHB106-.LFB16
	.uleb128 .LEHE106-.LEHB106
	.uleb128 0
	.uleb128 0
.LLSDACSE16:
	.byte	0
	.byte	0
	.byte	0x1
	.byte	0x7d
	.align 4
	.long	DW.ref.__gnat_others_value-.
.LLSDATT16:
	.section	.text.main__fc__conv__to_big_integerXn.20
	.size	main__fc__conv__to_big_integerXn.20, .-main__fc__conv__to_big_integerXn.20
	.section	.text.main__fc__to_big_real__B1183b___finalizer.24,"ax",@progbits
	.align 2
	.type	main__fc__to_big_real__B1183b___finalizer.24, @function
main__fc__to_big_real__B1183b___finalizer.24:
.LFB21:
	.cfi_startproc
	.cfi_personality 0x9b,DW.ref.__gnat_personality_v0
	.cfi_lsda 0x1b,.LLSDA21
	pushq	%r14
	.cfi_def_cfa_offset 16
	.cfi_offset 14, -16
	pushq	%rbx
	.cfi_def_cfa_offset 24
	.cfi_offset 3, -24
.LEHB107:
	subq	$8, %rsp
	.cfi_def_cfa_offset 32
	movq	%r10, %rbx
	call	ada__exceptions__triggered_by_abort@PLT
	movl	%eax, %r14d
	call	*system__soft_links__abort_defer(%rip)
.LEHE107:
	addq	$104, %rbx
	movq	%rbx, %rdi
.LEHB108:
	call	system__finalization_primitives__finalize_master@PLT
.LEHE108:
	movl	$0, %ebx
.L316:
.LEHB109:
	call	*system__soft_links__abort_undefer(%rip)
	movl	%r14d, %eax
	xorl	$1, %eax
	testb	%al, %bl
	jne	.L319
	addq	$8, %rsp
	.cfi_remember_state
	.cfi_def_cfa_offset 24
	popq	%rbx
	.cfi_def_cfa_offset 16
	popq	%r14
	.cfi_def_cfa_offset 8
	ret
.L319:
	.cfi_restore_state
	movl	$154, %esi
	leaq	.LC68(%rip), %rdi
	call	__gnat_rcheck_PE_Finalize_Raised_Exception@PLT
.L317:
	movq	%rax, %rdi
	cmpq	$1, %rdx
	je	.L315
	call	_Unwind_Resume@PLT
.L315:
	movq	%rax, %rbx
	movq	%rax, %rdi
	call	__gnat_begin_handler_v1@PLT
	movq	%rax, %rsi
	movl	$0, %edx
	movq	%rbx, %rdi
	call	__gnat_end_handler_v1@PLT
.LEHE109:
	movl	$1, %ebx
	jmp	.L316
	.cfi_endproc
.LFE21:
	.section	.gcc_except_table.main__fc__to_big_real__B1183b___finalizer.24,"a",@progbits
	.align 4
.LLSDA21:
	.byte	0xff
	.byte	0x9b
	.uleb128 .LLSDATT21-.LLSDATTD21
.LLSDATTD21:
	.byte	0x1
	.uleb128 .LLSDACSE21-.LLSDACSB21
.LLSDACSB21:
	.uleb128 .LEHB107-.LFB21
	.uleb128 .LEHE107-.LEHB107
	.uleb128 0
	.uleb128 0
	.uleb128 .LEHB108-.LFB21
	.uleb128 .LEHE108-.LEHB108
	.uleb128 .L317-.LFB21
	.uleb128 0x1
	.uleb128 .LEHB109-.LFB21
	.uleb128 .LEHE109-.LEHB109
	.uleb128 0
	.uleb128 0
.LLSDACSE21:
	.byte	0x1
	.byte	0
	.align 4
	.long	DW.ref.__gnat_others_value-.
.LLSDATT21:
	.section	.text.main__fc__to_big_real__B1183b___finalizer.24
	.size	main__fc__to_big_real__B1183b___finalizer.24, .-main__fc__to_big_real__B1183b___finalizer.24
	.section	.text.main__fc__to_big_real__B1202b___finalizer.25,"ax",@progbits
	.align 2
	.type	main__fc__to_big_real__B1202b___finalizer.25, @function
main__fc__to_big_real__B1202b___finalizer.25:
.LFB22:
	.cfi_startproc
	.cfi_personality 0x9b,DW.ref.__gnat_personality_v0
	.cfi_lsda 0x1b,.LLSDA22
	pushq	%r14
	.cfi_def_cfa_offset 16
	.cfi_offset 14, -16
	pushq	%rbx
	.cfi_def_cfa_offset 24
	.cfi_offset 3, -24
.LEHB110:
	subq	$8, %rsp
	.cfi_def_cfa_offset 32
	movq	%r10, %rbx
	call	ada__exceptions__triggered_by_abort@PLT
	movl	%eax, %r14d
	call	*system__soft_links__abort_defer(%rip)
.LEHE110:
	addq	$88, %rbx
	movq	%rbx, %rdi
.LEHB111:
	call	system__finalization_primitives__finalize_master@PLT
.LEHE111:
	movl	$0, %ebx
.L324:
.LEHB112:
	call	*system__soft_links__abort_undefer(%rip)
	movl	%r14d, %eax
	xorl	$1, %eax
	testb	%al, %bl
	jne	.L327
	addq	$8, %rsp
	.cfi_remember_state
	.cfi_def_cfa_offset 24
	popq	%rbx
	.cfi_def_cfa_offset 16
	popq	%r14
	.cfi_def_cfa_offset 8
	ret
.L327:
	.cfi_restore_state
	movl	$159, %esi
	leaq	.LC68(%rip), %rdi
	call	__gnat_rcheck_PE_Finalize_Raised_Exception@PLT
.L325:
	movq	%rax, %rdi
	cmpq	$1, %rdx
	je	.L323
	call	_Unwind_Resume@PLT
.L323:
	movq	%rax, %rbx
	movq	%rax, %rdi
	call	__gnat_begin_handler_v1@PLT
	movq	%rax, %rsi
	movl	$0, %edx
	movq	%rbx, %rdi
	call	__gnat_end_handler_v1@PLT
.LEHE112:
	movl	$1, %ebx
	jmp	.L324
	.cfi_endproc
.LFE22:
	.section	.gcc_except_table.main__fc__to_big_real__B1202b___finalizer.25,"a",@progbits
	.align 4
.LLSDA22:
	.byte	0xff
	.byte	0x9b
	.uleb128 .LLSDATT22-.LLSDATTD22
.LLSDATTD22:
	.byte	0x1
	.uleb128 .LLSDACSE22-.LLSDACSB22
.LLSDACSB22:
	.uleb128 .LEHB110-.LFB22
	.uleb128 .LEHE110-.LEHB110
	.uleb128 0
	.uleb128 0
	.uleb128 .LEHB111-.LFB22
	.uleb128 .LEHE111-.LEHB111
	.uleb128 .L325-.LFB22
	.uleb128 0x1
	.uleb128 .LEHB112-.LFB22
	.uleb128 .LEHE112-.LEHB112
	.uleb128 0
	.uleb128 0
.LLSDACSE22:
	.byte	0x1
	.byte	0
	.align 4
	.long	DW.ref.__gnat_others_value-.
.LLSDATT22:
	.section	.text.main__fc__to_big_real__B1202b___finalizer.25
	.size	main__fc__to_big_real__B1202b___finalizer.25, .-main__fc__to_big_real__B1202b___finalizer.25
	.section	.text.main__fc__to_big_real___finalizer.29,"ax",@progbits
	.align 2
	.type	main__fc__to_big_real___finalizer.29, @function
main__fc__to_big_real___finalizer.29:
.LFB26:
	.cfi_startproc
	.cfi_personality 0x9b,DW.ref.__gnat_personality_v0
	.cfi_lsda 0x1b,.LLSDA26
	pushq	%r14
	.cfi_def_cfa_offset 16
	.cfi_offset 14, -16
	pushq	%rbx
	.cfi_def_cfa_offset 24
	.cfi_offset 3, -24
.LEHB113:
	subq	$8, %rsp
	.cfi_def_cfa_offset 32
	movq	%r10, %rbx
	call	ada__exceptions__triggered_by_abort@PLT
	movl	%eax, %r14d
	call	*system__soft_links__abort_defer(%rip)
.LEHE113:
	movq	%rbx, %rdi
.LEHB114:
	call	system__finalization_primitives__finalize_master@PLT
.LEHE114:
	movl	$0, %ebx
.L332:
.LEHB115:
	call	*system__soft_links__abort_undefer(%rip)
	movl	%r14d, %eax
	xorl	$1, %eax
	testb	%al, %bl
	jne	.L335
	addq	$8, %rsp
	.cfi_remember_state
	.cfi_def_cfa_offset 24
	popq	%rbx
	.cfi_def_cfa_offset 16
	popq	%r14
	.cfi_def_cfa_offset 8
	ret
.L335:
	.cfi_restore_state
	movl	$133, %esi
	leaq	.LC68(%rip), %rdi
	call	__gnat_rcheck_PE_Finalize_Raised_Exception@PLT
.L333:
	movq	%rax, %rdi
	cmpq	$1, %rdx
	je	.L331
	call	_Unwind_Resume@PLT
.L331:
	movq	%rax, %rbx
	movq	%rax, %rdi
	call	__gnat_begin_handler_v1@PLT
	movq	%rax, %rsi
	movl	$0, %edx
	movq	%rbx, %rdi
	call	__gnat_end_handler_v1@PLT
.LEHE115:
	movl	$1, %ebx
	jmp	.L332
	.cfi_endproc
.LFE26:
	.section	.gcc_except_table.main__fc__to_big_real___finalizer.29,"a",@progbits
	.align 4
.LLSDA26:
	.byte	0xff
	.byte	0x9b
	.uleb128 .LLSDATT26-.LLSDATTD26
.LLSDATTD26:
	.byte	0x1
	.uleb128 .LLSDACSE26-.LLSDACSB26
.LLSDACSB26:
	.uleb128 .LEHB113-.LFB26
	.uleb128 .LEHE113-.LEHB113
	.uleb128 0
	.uleb128 0
	.uleb128 .LEHB114-.LFB26
	.uleb128 .LEHE114-.LEHB114
	.uleb128 .L333-.LFB26
	.uleb128 0x1
	.uleb128 .LEHB115-.LFB26
	.uleb128 .LEHE115-.LEHB115
	.uleb128 0
	.uleb128 0
.LLSDACSE26:
	.byte	0x1
	.byte	0
	.align 4
	.long	DW.ref.__gnat_others_value-.
.LLSDATT26:
	.section	.text.main__fc__to_big_real___finalizer.29
	.size	main__fc__to_big_real___finalizer.29, .-main__fc__to_big_real___finalizer.29
	.section	.text.main__fc__to_big_real.19,"ax",@progbits
	.align 2
	.type	main__fc__to_big_real.19, @function
main__fc__to_big_real.19:
.LVL27:
.LFB19:
	.file 2 "/home/vscode/.local/libexec/spark/lib/gcc/x86_64-pc-linux-gnu/15.1.0/adainclude/a-nbnbre.adb"
	.loc 2 133 7 is_stmt 1 view -0
	.cfi_startproc
	.cfi_personality 0x9b,DW.ref.__gnat_personality_v0
	.cfi_lsda 0x1b,.LLSDA19
	.loc 2 133 7 is_stmt 0 view .LVU31
	pushq	%r12
	.cfi_def_cfa_offset 16
	.cfi_offset 12, -16
	pushq	%rbp
	.cfi_def_cfa_offset 24
	.cfi_offset 6, -24
	pushq	%rbx
	.cfi_def_cfa_offset 32
	.cfi_offset 3, -32
.LEHB116:
	subq	$1216, %rsp
	.cfi_def_cfa_offset 1248
.LEHE116:
	movq	%rdi, %rbp
	movss	%xmm0, 12(%rsp)
	.loc 2 133 7 is_stmt 1 discriminator 1 view .LVU32
	leaq	1248(%rsp), %rax
	movq	%rax, 160(%rsp)
.LVL28:
	.loc 2 133 7 is_stmt 0 discriminator 1 view .LVU33
	movb	$1, 16(%rsp)
	movb	$0, 17(%rsp)
	movb	$0, 18(%rsp)
	movq	$0, 24(%rsp)
.LVL29:
	.loc 2 135 39 is_stmt 1 view .LVU34
	leaq	12(%rsp), %rdi
.LVL30:
	.loc 2 135 39 is_stmt 0 view .LVU35
	movl	$0, %esi
.LEHB117:
	call	system__fat_flt__attr_float__valid@PLT
.LVL31:
	.loc 2 135 39 discriminator 2 view .LVU36
	testb	%al, %al
	je	.L434
	.loc 2 135 35 is_stmt 1 discriminator 4 view .LVU37
	movss	12(%rsp), %xmm0
	andps	.LC72(%rip), %xmm0
	movss	%xmm0, 848(%rsp)
	leaq	848(%rsp), %rdi
	movl	$0, %esi
	call	system__fat_flt__attr_float__valid@PLT
.LVL32:
	jmp	.L435
.L434:
	.loc 2 135 39 discriminator 3 view .LVU38
	movl	$135, %esi
	leaq	.LC68(%rip), %rdi
	call	__gnat_rcheck_CE_Invalid_Data@PLT
.LVL33:
.LEHE117:
.L398:
	.loc 2 169 0 discriminator 4 view .LVU39
	movq	%rax, %rbx
.L367:
	leaq	16(%rsp), %r10
.LEHB118:
	call	main__fc__to_big_real___finalizer.29
.LVL34:
	movq	%rbx, %rdi
	call	_Unwind_Resume@PLT
.LVL35:
.LEHE118:
.L435:
	.loc 2 135 35 discriminator 7 view .LVU40
	testb	%al, %al
	je	.L436
	.loc 2 135 10 discriminator 9 view .LVU41
	movss	12(%rsp), %xmm0
	andps	.LC72(%rip), %xmm0
	movd	%xmm0, %ebx
.LVL36:
.LEHB119:
	.loc 2 136 38 view .LVU42
	call	system__fat_flt__attr_float__exponent@PLT
.LVL37:
	jmp	.L437
.LVL38:
.L436:
	.loc 2 135 35 discriminator 8 view .LVU43
	movl	$135, %esi
	leaq	.LC68(%rip), %rdi
	call	__gnat_rcheck_CE_Invalid_Data@PLT
.LVL39:
.L437:
	.loc 2 136 38 view .LVU44
	movl	%eax, %r12d
.LVL40:
	.loc 2 137 38 view .LVU45
	movd	%ebx, %xmm0
	call	system__fat_flt__attr_float__fraction@PLT
.LVL41:
.LEHE119:
	.loc 2 137 38 is_stmt 0 view .LVU46
	movss	%xmm0, 8(%rsp)
.LVL42:
	.loc 2 140 10 is_stmt 1 view .LVU47
	movq	$0, 864(%rsp)
	movq	$0, 872(%rsp)
	movq	$0, 880(%rsp)
.LVL43:
.LEHB120:
	.loc 2 140 10 is_stmt 0 discriminator 2 view .LVU48
	call	*system__soft_links__abort_defer(%rip)
.LVL44:
	.loc 2 140 10 discriminator 5 view .LVU49
	leaq	832(%rsp), %rdi
	call	ada__numerics__big_numbers__big_integers__big_integerIP@PLT
.LVL45:
.LEHE120:
.LBB1424:
	.loc 2 140 10 discriminator 8 view .LVU50
	leaq	832(%rsp), %rdi
.LEHB121:
	call	ada__numerics__big_numbers__big_integers__big_integerDI@PLT
.LVL46:
	.loc 2 140 10 discriminator 11 view .LVU51
	leaq	16(%rsp), %rcx
	leaq	864(%rsp), %rdx
	leaq	832(%rsp), %rdi
	movq	ada__numerics__big_numbers__big_integers__big_integerFD@GOTPCREL(%rip), %rsi
	call	system__finalization_primitives__attach_object_to_master@PLT
.LVL47:
.LEHE121:
.LEHB122:
.LBE1424:
	.loc 2 140 0 is_stmt 1 discriminator 14 view .LVU52
	call	system__standard_library__abort_undefer_direct@PLT
.LVL48:
.LEHE122:
	.loc 2 140 10 view .LVU53
	movq	$0, 896(%rsp)
	movq	$0, 904(%rsp)
	movq	$0, 912(%rsp)
.LVL49:
.LEHB123:
	.loc 2 140 10 is_stmt 0 discriminator 17 view .LVU54
	call	*system__soft_links__abort_defer(%rip)
.LVL50:
	.loc 2 140 10 discriminator 20 view .LVU55
	leaq	816(%rsp), %rdi
	call	ada__numerics__big_numbers__big_integers__big_integerIP@PLT
.LVL51:
.LEHE123:
.LBB1425:
	.loc 2 140 10 discriminator 23 view .LVU56
	leaq	816(%rsp), %rdi
.LEHB124:
	call	ada__numerics__big_numbers__big_integers__big_integerDI@PLT
.LVL52:
	.loc 2 140 10 discriminator 26 view .LVU57
	leaq	16(%rsp), %rcx
	leaq	896(%rsp), %rdx
	leaq	816(%rsp), %rdi
	movq	ada__numerics__big_numbers__big_integers__big_integerFD@GOTPCREL(%rip), %rsi
	call	system__finalization_primitives__attach_object_to_master@PLT
.LVL53:
.LEHE124:
.LEHB125:
.LBE1425:
	.loc 2 140 0 is_stmt 1 discriminator 29 view .LVU58
	call	system__standard_library__abort_undefer_direct@PLT
.LVL54:
.LEHE125:
.LBB1426:
	.loc 2 149 12 view .LVU59
	movq	$0, 136(%rsp)
	movq	$0, 144(%rsp)
	movq	$0, 152(%rsp)
.LVL55:
	.loc 2 149 58 discriminator 3 view .LVU60
	movss	8(%rsp), %xmm2
	mulss	.LC73(%rip), %xmm2
	movd	%xmm2, %ebx
.LVL56:
	.loc 2 149 58 is_stmt 0 discriminator 3 view .LVU61
	movss	%xmm2, 852(%rsp)
	leaq	852(%rsp), %rdi
	movl	$0, %esi
.LEHB126:
	call	system__fat_flt__attr_float__valid@PLT
.LVL57:
	.loc 2 149 58 discriminator 6 view .LVU62
	testb	%al, %al
	je	.L438
	.loc 2 149 58 discriminator 8 view .LVU63
	movd	%ebx, %xmm3
	ucomiss	.LC74(%rip), %xmm3
	jbe	.L340
	.loc 2 149 58 discriminator 12 view .LVU64
	movl	%ebx, 856(%rsp)
	leaq	856(%rsp), %rdi
	movl	$0, %esi
	call	system__fat_flt__attr_float__valid@PLT
.LVL58:
	jmp	.L439
.L438:
	.loc 2 149 58 discriminator 7 view .LVU65
	movl	$149, %esi
	leaq	.LC68(%rip), %rdi
	call	__gnat_rcheck_CE_Invalid_Data@PLT
.LVL59:
.LEHE126:
.L405:
	.loc 2 149 0 is_stmt 1 discriminator 57 view .LVU66
	movq	%rax, %rbx
.L376:
	leaq	16(%rsp), %r10
.LEHB127:
	call	main__fc__to_big_real__B1165b___finalizer.23
.LVL60:
.LEHE127:
	jmp	.L367
.LVL61:
.L439:
	.loc 2 149 58 discriminator 15 view .LVU67
	testb	%al, %al
	je	.L440
	.loc 2 149 58 is_stmt 0 discriminator 17 view .LVU68
	movss	.LC75(%rip), %xmm0
	movd	%ebx, %xmm4
	ucomiss	%xmm4, %xmm0
	jbe	.L340
	.loc 2 149 58 discriminator 21 view .LVU69
	movl	%ebx, 860(%rsp)
	leaq	860(%rsp), %rdi
	movl	$0, %esi
.LEHB128:
	call	system__fat_flt__attr_float__valid@PLT
.LVL62:
	jmp	.L441
.L440:
	.loc 2 149 58 discriminator 16 view .LVU70
	movl	$149, %esi
	leaq	.LC68(%rip), %rdi
	call	__gnat_rcheck_CE_Invalid_Data@PLT
.LVL63:
.L340:
	.loc 2 149 58 discriminator 20 view .LVU71
	movl	$149, %esi
	leaq	.LC68(%rip), %rdi
	call	__gnat_rcheck_CE_Overflow_Check@PLT
.LVL64:
.L441:
	.loc 2 149 58 discriminator 26 view .LVU72
	testb	%al, %al
	je	.L442
	.loc 2 149 19 is_stmt 1 discriminator 28 view .LVU73
	pxor	%xmm0, %xmm0
	movd	%ebx, %xmm5
	comiss	%xmm0, %xmm5
	jb	.L429
	.loc 2 149 36 discriminator 31 view .LVU74
	movd	%ebx, %xmm0
	addss	.LC77(%rip), %xmm0
	.loc 2 149 19 discriminator 31 view .LVU75
	comiss	.LC78(%rip), %xmm0
	jnb	.L347
	cvttss2siq	%xmm0, %rsi
.L349:
	.loc 2 149 19 is_stmt 0 discriminator 34 view .LVU76
	leaq	928(%rsp), %rdi
	call	main__fc__conv__to_big_integerXn.20
.LVL65:
	jmp	.L443
.L442:
	.loc 2 149 58 is_stmt 1 discriminator 27 view .LVU77
	movl	$149, %esi
	leaq	.LC68(%rip), %rdi
	call	__gnat_rcheck_CE_Invalid_Data@PLT
.LVL66:
.L347:
	.loc 2 149 19 discriminator 31 view .LVU78
	subss	.LC78(%rip), %xmm0
	cvttss2siq	%xmm0, %rsi
	btcq	$63, %rsi
	jmp	.L349
.L429:
	.loc 2 149 36 discriminator 32 view .LVU79
	movd	%ebx, %xmm0
	subss	.LC77(%rip), %xmm0
	.loc 2 149 19 discriminator 32 view .LVU80
	comiss	.LC78(%rip), %xmm0
	jnb	.L350
	cvttss2siq	%xmm0, %rsi
	jmp	.L349
.L350:
	subss	.LC78(%rip), %xmm0
	cvttss2siq	%xmm0, %rsi
	btcq	$63, %rsi
	jmp	.L349
.L443:
	.loc 2 149 19 is_stmt 0 discriminator 37 view .LVU81
	leaq	136(%rsp), %rdx
	leaq	928(%rsp), %rdi
	movq	ada__numerics__big_numbers__big_integers__big_integerFD@GOTPCREL(%rip), %rsi
	call	system__finalization_primitives__attach_object_to_node@PLT
.LVL67:
.LEHE128:
.LEHB129:
	.loc 2 149 12 is_stmt 1 discriminator 40 view .LVU82
	call	*system__soft_links__abort_defer(%rip)
.LVL68:
.LEHE129:
.LBB1427:
	.loc 2 149 10 discriminator 44 view .LVU83
	leaq	832(%rsp), %rdi
	movl	$1, %esi
.LEHB130:
	call	ada__numerics__big_numbers__big_integers__big_integerDF@PLT
.LVL69:
	.loc 2 149 12 discriminator 47 view .LVU84
	movdqa	928(%rsp), %xmm6
	movaps	%xmm6, 832(%rsp)
	.loc 2 149 10 discriminator 48 view .LVU85
	leaq	832(%rsp), %rdi
	movl	$1, %esi
	call	ada__numerics__big_numbers__big_integers__big_integerDA@PLT
.LVL70:
.LEHE130:
.LEHB131:
.LBE1427:
	.loc 2 149 0 discriminator 50 view .LVU86
	call	system__standard_library__abort_undefer_direct@PLT
.LVL71:
.LEHE131:
	.loc 2 149 0 is_stmt 0 view .LVU87
	leaq	16(%rsp), %r10
.LEHB132:
	call	main__fc__to_big_real__B1165b___finalizer.23
.LVL72:
.LEHE132:
.LBE1426:
	.loc 2 153 10 is_stmt 1 view .LVU88
	cmpl	$23, %r12d
	jle	.L444
	.loc 2 158 10 view .LVU89
	cmpl	$24, %r12d
	jle	.L356
.LVL73:
.LBB1429:
	.loc 2 159 15 view .LVU90
	movb	$1, 104(%rsp)
	movb	$0, 105(%rsp)
	movb	$0, 106(%rsp)
	movq	$0, 112(%rsp)
.LVL74:
	.loc 2 159 22 discriminator 3 view .LVU91
	movq	$0, 1040(%rsp)
	movq	$0, 1048(%rsp)
	movq	$0, 1056(%rsp)
.LVL75:
	.loc 2 159 22 is_stmt 0 discriminator 6 view .LVU92
	leaq	1072(%rsp), %rdi
	movl	$2, %esi
.LEHB133:
	call	ada__numerics__big_numbers__big_integers__to_big_integer@PLT
.LVL76:
.LEHE133:
	jmp	.L445
.LVL77:
.L444:
	.loc 2 159 22 discriminator 6 view .LVU93
.LBE1429:
.LBB1432:
	.loc 2 154 15 is_stmt 1 view .LVU94
	movb	$1, 120(%rsp)
	movb	$0, 121(%rsp)
	movb	$0, 122(%rsp)
	movq	$0, 128(%rsp)
.LVL78:
	.loc 2 154 18 discriminator 3 view .LVU95
	movq	$0, 944(%rsp)
	movq	$0, 952(%rsp)
	movq	$0, 960(%rsp)
.LVL79:
	.loc 2 154 18 is_stmt 0 discriminator 6 view .LVU96
	leaq	976(%rsp), %rdi
	movl	$2, %esi
.LEHB134:
	call	ada__numerics__big_numbers__big_integers__to_big_integer@PLT
.LVL80:
	.loc 2 154 18 discriminator 9 view .LVU97
	leaq	120(%rsp), %rcx
	leaq	944(%rsp), %rdx
	leaq	976(%rsp), %rdi
	movq	ada__numerics__big_numbers__big_integers__big_integerFD@GOTPCREL(%rip), %rsi
	call	system__finalization_primitives__attach_object_to_master@PLT
.LVL81:
	.loc 2 154 43 is_stmt 1 discriminator 12 view .LVU98
	cmpl	$-2147483623, %r12d
	jl	.L446
	.loc 2 154 43 is_stmt 0 discriminator 14 view .LVU99
	movl	$24, %edx
	subl	%r12d, %edx
	.loc 2 154 43 discriminator 18 view .LVU100
	cmpl	$24, %r12d
	jg	.L447
.LVL82:
	.loc 2 154 37 is_stmt 1 discriminator 20 view .LVU101
	movq	$0, 992(%rsp)
	movq	$0, 1000(%rsp)
	movq	$0, 1008(%rsp)
.LVL83:
	.loc 2 154 37 is_stmt 0 discriminator 25 view .LVU102
	leaq	1024(%rsp), %rdi
	leaq	976(%rsp), %rsi
	call	ada__numerics__big_numbers__big_integers__Oexpon@PLT
.LVL84:
	jmp	.L448
.L446:
	.loc 2 154 43 is_stmt 1 discriminator 13 view .LVU103
	movl	$154, %esi
	leaq	.LC68(%rip), %rdi
	call	__gnat_rcheck_CE_Overflow_Check@PLT
.LVL85:
.LEHE134:
.L409:
	.loc 2 154 0 discriminator 48 view .LVU104
	movq	%rax, %rbx
.L381:
	leaq	16(%rsp), %r10
.LEHB135:
	call	main__fc__to_big_real__B1183b___finalizer.24
.LVL86:
.LEHE135:
	jmp	.L367
.LVL87:
.L447:
	.loc 2 154 43 discriminator 19 view .LVU105
	movl	$154, %esi
	leaq	.LC68(%rip), %rdi
.LEHB136:
	call	__gnat_rcheck_CE_Range_Check@PLT
.LVL88:
.L448:
	.loc 2 154 37 discriminator 28 view .LVU106
	leaq	120(%rsp), %rcx
	leaq	992(%rsp), %rdx
	leaq	1024(%rsp), %rdi
	movq	ada__numerics__big_numbers__big_integers__big_integerFD@GOTPCREL(%rip), %rsi
	call	system__finalization_primitives__attach_object_to_master@PLT
.LVL89:
.LEHE136:
.LEHB137:
	.loc 2 154 15 discriminator 31 view .LVU107
	call	*system__soft_links__abort_defer(%rip)
.LVL90:
.LEHE137:
.LBB1433:
	.loc 2 154 13 discriminator 35 view .LVU108
	leaq	816(%rsp), %rdi
	movl	$1, %esi
.LEHB138:
	call	ada__numerics__big_numbers__big_integers__big_integerDF@PLT
.LVL91:
	.loc 2 154 15 discriminator 38 view .LVU109
	movdqa	1024(%rsp), %xmm1
	movaps	%xmm1, 816(%rsp)
	.loc 2 154 13 discriminator 39 view .LVU110
	leaq	816(%rsp), %rdi
	movl	$1, %esi
	call	ada__numerics__big_numbers__big_integers__big_integerDA@PLT
.LVL92:
.LEHE138:
.LEHB139:
.LBE1433:
	.loc 2 154 0 discriminator 41 view .LVU111
	call	system__standard_library__abort_undefer_direct@PLT
.LVL93:
.LEHE139:
	.loc 2 154 0 is_stmt 0 view .LVU112
	leaq	16(%rsp), %r10
.LEHB140:
	call	main__fc__to_big_real__B1183b___finalizer.24
.LVL94:
.LEHE140:
	jmp	.L355
.LVL95:
.L445:
	.loc 2 154 0 view .LVU113
.LBE1432:
.LBB1435:
	.loc 2 159 22 is_stmt 1 discriminator 9 view .LVU114
	leaq	104(%rsp), %rcx
	leaq	1040(%rsp), %rdx
	leaq	1072(%rsp), %rdi
	movq	ada__numerics__big_numbers__big_integers__big_integerFD@GOTPCREL(%rip), %rsi
.LEHB141:
	call	system__finalization_primitives__attach_object_to_master@PLT
.LVL96:
	.loc 2 159 47 discriminator 12 view .LVU115
	cmpl	$-2147483624, %r12d
	jl	.L449
	.loc 2 159 47 is_stmt 0 discriminator 18 view .LVU116
	movl	%r12d, %edx
	subl	$24, %edx
	js	.L450
.LVL97:
	.loc 2 159 41 is_stmt 1 discriminator 20 view .LVU117
	movq	$0, 1088(%rsp)
	movq	$0, 1096(%rsp)
	movq	$0, 1104(%rsp)
.LVL98:
	.loc 2 159 41 is_stmt 0 discriminator 25 view .LVU118
	leaq	1120(%rsp), %rdi
	leaq	1072(%rsp), %rsi
	call	ada__numerics__big_numbers__big_integers__Oexpon@PLT
.LVL99:
	jmp	.L451
.L449:
	.loc 2 159 47 is_stmt 1 discriminator 13 view .LVU119
	movl	$159, %esi
	leaq	.LC68(%rip), %rdi
	call	__gnat_rcheck_CE_Overflow_Check@PLT
.LVL100:
.LEHE141:
.L413:
	.loc 2 159 0 discriminator 57 view .LVU120
	movq	%rax, %rbx
.L386:
	leaq	16(%rsp), %r10
.LEHB142:
	call	main__fc__to_big_real__B1202b___finalizer.25
.LVL101:
.LEHE142:
	jmp	.L367
.LVL102:
.L450:
	.loc 2 159 47 discriminator 19 view .LVU121
	movl	$159, %esi
	leaq	.LC68(%rip), %rdi
.LEHB143:
	call	__gnat_rcheck_CE_Range_Check@PLT
.LVL103:
.L451:
	.loc 2 159 41 discriminator 28 view .LVU122
	leaq	104(%rsp), %rcx
	leaq	1088(%rsp), %rdx
	leaq	1120(%rsp), %rdi
	movq	ada__numerics__big_numbers__big_integers__big_integerFD@GOTPCREL(%rip), %rsi
	call	system__finalization_primitives__attach_object_to_master@PLT
.LVL104:
	.loc 2 159 20 discriminator 31 view .LVU123
	movq	$0, 1136(%rsp)
	movq	$0, 1144(%rsp)
	movq	$0, 1152(%rsp)
.LVL105:
	.loc 2 159 20 is_stmt 0 discriminator 34 view .LVU124
	leaq	1168(%rsp), %rdi
	leaq	1120(%rsp), %rdx
	leaq	832(%rsp), %rsi
	call	ada__numerics__big_numbers__big_integers__Omultiply@PLT
.LVL106:
	.loc 2 159 20 discriminator 37 view .LVU125
	leaq	104(%rsp), %rcx
	leaq	1136(%rsp), %rdx
	leaq	1168(%rsp), %rdi
	movq	ada__numerics__big_numbers__big_integers__big_integerFD@GOTPCREL(%rip), %rsi
	call	system__finalization_primitives__attach_object_to_master@PLT
.LVL107:
.LEHE143:
.LEHB144:
	.loc 2 159 15 is_stmt 1 discriminator 40 view .LVU126
	call	*system__soft_links__abort_defer(%rip)
.LVL108:
.LEHE144:
.LBB1430:
	.loc 2 159 13 discriminator 44 view .LVU127
	leaq	832(%rsp), %rdi
	movl	$1, %esi
.LEHB145:
	call	ada__numerics__big_numbers__big_integers__big_integerDF@PLT
.LVL109:
	.loc 2 159 15 discriminator 47 view .LVU128
	movdqa	1168(%rsp), %xmm7
	movaps	%xmm7, 832(%rsp)
	.loc 2 159 13 discriminator 48 view .LVU129
	leaq	832(%rsp), %rdi
	movl	$1, %esi
	call	ada__numerics__big_numbers__big_integers__big_integerDA@PLT
.LVL110:
.LEHE145:
.LEHB146:
.LBE1430:
	.loc 2 159 0 discriminator 50 view .LVU130
	call	system__standard_library__abort_undefer_direct@PLT
.LVL111:
.LEHE146:
	.loc 2 159 0 is_stmt 0 view .LVU131
	leaq	16(%rsp), %r10
.LEHB147:
	call	main__fc__to_big_real__B1202b___finalizer.25
.LVL112:
.LEHE147:
	.loc 2 159 0 view .LVU132
.LBE1435:
.LBB1436:
	.loc 2 160 15 is_stmt 1 view .LVU133
	movq	$0, 80(%rsp)
	movq	$0, 88(%rsp)
	movq	$0, 96(%rsp)
.LVL113:
	.loc 2 160 18 discriminator 3 view .LVU134
	leaq	1184(%rsp), %rdi
	movl	$1, %esi
.LEHB148:
	call	ada__numerics__big_numbers__big_integers__to_big_integer@PLT
.LVL114:
	.loc 2 160 18 is_stmt 0 discriminator 6 view .LVU135
	leaq	80(%rsp), %rdx
	leaq	1184(%rsp), %rdi
	movq	ada__numerics__big_numbers__big_integers__big_integerFD@GOTPCREL(%rip), %rsi
	call	system__finalization_primitives__attach_object_to_node@PLT
.LVL115:
.LEHE148:
.LEHB149:
	.loc 2 160 15 is_stmt 1 discriminator 9 view .LVU136
	call	*system__soft_links__abort_defer(%rip)
.LVL116:
.LEHE149:
.LBB1437:
	.loc 2 160 13 discriminator 13 view .LVU137
	leaq	816(%rsp), %rdi
	movl	$1, %esi
.LEHB150:
	call	ada__numerics__big_numbers__big_integers__big_integerDF@PLT
.LVL117:
	.loc 2 160 15 discriminator 16 view .LVU138
	movdqa	1184(%rsp), %xmm7
	movaps	%xmm7, 816(%rsp)
	.loc 2 160 13 discriminator 17 view .LVU139
	leaq	816(%rsp), %rdi
	movl	$1, %esi
	call	ada__numerics__big_numbers__big_integers__big_integerDA@PLT
.LVL118:
.LEHE150:
.LEHB151:
.LBE1437:
	.loc 2 160 0 discriminator 19 view .LVU140
	call	system__standard_library__abort_undefer_direct@PLT
.LVL119:
.LEHE151:
	.loc 2 160 0 is_stmt 0 view .LVU141
	leaq	16(%rsp), %r10
.LEHB152:
	call	main__fc__to_big_real__B1226b___finalizer.26
.LVL120:
.LEHE152:
	jmp	.L355
.LVL121:
.L356:
	.loc 2 160 0 view .LVU142
.LBE1436:
.LBB1439:
	.loc 2 165 15 is_stmt 1 view .LVU143
	movq	$0, 56(%rsp)
	movq	$0, 64(%rsp)
	movq	$0, 72(%rsp)
.LVL122:
	.loc 2 165 18 discriminator 3 view .LVU144
	leaq	1200(%rsp), %rdi
	movl	$1, %esi
.LEHB153:
	call	ada__numerics__big_numbers__big_integers__to_big_integer@PLT
.LVL123:
	.loc 2 165 18 is_stmt 0 discriminator 6 view .LVU145
	leaq	56(%rsp), %rdx
	leaq	1200(%rsp), %rdi
	movq	ada__numerics__big_numbers__big_integers__big_integerFD@GOTPCREL(%rip), %rsi
	call	system__finalization_primitives__attach_object_to_node@PLT
.LVL124:
.LEHE153:
.LEHB154:
	.loc 2 165 15 is_stmt 1 discriminator 9 view .LVU146
	call	*system__soft_links__abort_defer(%rip)
.LVL125:
.LEHE154:
.LBB1440:
	.loc 2 165 13 discriminator 13 view .LVU147
	leaq	816(%rsp), %rdi
	movl	$1, %esi
.LEHB155:
	call	ada__numerics__big_numbers__big_integers__big_integerDF@PLT
.LVL126:
	.loc 2 165 15 discriminator 16 view .LVU148
	movdqa	1200(%rsp), %xmm7
	movaps	%xmm7, 816(%rsp)
	.loc 2 165 13 discriminator 17 view .LVU149
	leaq	816(%rsp), %rdi
	movl	$1, %esi
	call	ada__numerics__big_numbers__big_integers__big_integerDA@PLT
.LVL127:
.LEHE155:
.LEHB156:
.LBE1440:
	.loc 2 165 0 discriminator 19 view .LVU150
	call	system__standard_library__abort_undefer_direct@PLT
.LVL128:
.LEHE156:
	.loc 2 165 0 is_stmt 0 view .LVU151
	leaq	16(%rsp), %r10
.LEHB157:
	call	main__fc__to_big_real__B1238b___finalizer.27
.LVL129:
.L355:
.LBE1439:
	.loc 2 168 21 is_stmt 1 view .LVU152
	leaq	12(%rsp), %rdi
	movl	$0, %esi
	call	system__fat_flt__attr_float__valid@PLT
.LVL130:
.LEHE157:
	.loc 2 168 21 is_stmt 0 discriminator 2 view .LVU153
	testb	%al, %al
	je	.L452
.LVL131:
.LBB1442:
	.loc 2 168 51 is_stmt 1 discriminator 4 view .LVU154
	movq	$0, 32(%rsp)
	movq	$0, 40(%rsp)
	movq	$0, 48(%rsp)
.LVL132:
	.loc 2 168 18 discriminator 8 view .LVU155
	movss	12(%rsp), %xmm1
	pxor	%xmm0, %xmm0
	comiss	%xmm0, %xmm1
	jb	.L430
	.loc 2 168 39 discriminator 9 view .LVU156
	leaq	816(%rsp), %rdx
	leaq	832(%rsp), %rsi
	movq	%rbp, %rdi
.LEHB158:
	call	ada__numerics__big_numbers__big_reals__Odivide@PLT
.LVL133:
.LEHE158:
	jmp	.L362
.L452:
	.loc 2 168 39 is_stmt 0 discriminator 9 view .LVU157
.LBE1442:
	.loc 2 168 21 is_stmt 1 discriminator 3 view .LVU158
	movl	$168, %esi
	leaq	.LC68(%rip), %rdi
.LEHB159:
	call	__gnat_rcheck_CE_Invalid_Data@PLT
.LVL134:
.LEHE159:
.L430:
.LBB1443:
	.loc 2 168 51 discriminator 10 view .LVU159
	leaq	176(%rsp), %rdi
	leaq	816(%rsp), %rdx
	leaq	832(%rsp), %rsi
.LEHB160:
	call	ada__numerics__big_numbers__big_reals__Odivide@PLT
.LVL135:
	.loc 2 168 51 is_stmt 0 discriminator 17 view .LVU160
	leaq	32(%rsp), %rdx
	leaq	176(%rsp), %rdi
	movq	ada__numerics__big_numbers__big_reals__big_realFD@GOTPCREL(%rip), %rsi
	call	system__finalization_primitives__attach_object_to_node@PLT
.LVL136:
	.loc 2 168 48 is_stmt 1 discriminator 20 view .LVU161
	leaq	176(%rsp), %rsi
	movq	%rbp, %rdi
	call	ada__numerics__big_numbers__big_reals__Osubtract@PLT
.LVL137:
.LEHE160:
.L362:
	.loc 2 168 0 discriminator 24 view .LVU162
	leaq	16(%rsp), %r10
.LEHB161:
	call	main__fc__to_big_real__B1252b___finalizer.28
.LVL138:
	jmp	.L453
.LVL139:
.L400:
	.loc 2 168 0 is_stmt 0 discriminator 24 view .LVU163
.LBE1443:
	.loc 2 140 10 is_stmt 1 discriminator 13 view .LVU164
	movq	%rax, %rbp
.LVL140:
	.loc 2 140 10 is_stmt 0 discriminator 13 view .LVU165
	cmpq	$1, %rdx
	je	.L364
	movq	%rax, %rbx
.LVL141:
.L365:
	.loc 2 140 0 is_stmt 1 discriminator 41 view .LVU166
	call	system__standard_library__abort_undefer_direct@PLT
.LVL142:
.LEHE161:
	jmp	.L367
.LVL143:
.L364:
.LBB1444:
	.loc 2 140 10 discriminator 32 view .LVU167
	movq	%rax, %rdi
	call	__gnat_begin_handler_v1@PLT
.LVL144:
	.loc 2 140 10 is_stmt 0 discriminator 32 view .LVU168
	movq	%rax, %r12
.LVL145:
	.loc 2 140 10 discriminator 33 view .LVU169
	leaq	832(%rsp), %rdi
	movl	$0, %esi
.LEHB162:
	call	ada__numerics__big_numbers__big_integers__big_integerDF@PLT
.LVL146:
	.loc 2 140 10 discriminator 36 view .LVU170
	movq	%rbp, %rdi
	call	__gnat_reraise_zcx@PLT
.LVL147:
.LEHE162:
.L401:
	.loc 2 140 10 discriminator 38 view .LVU171
	movq	%rax, %rbx
.LVL148:
	.loc 2 140 10 discriminator 39 view .LVU172
	movq	%rax, %rdx
	movq	%r12, %rsi
	movq	%rbp, %rdi
.LEHB163:
	call	__gnat_end_handler_v1@PLT
.LVL149:
.LEHE163:
	.loc 2 140 10 discriminator 39 view .LVU173
	jmp	.L365
.LVL150:
.L399:
	.loc 2 140 10 discriminator 39 view .LVU174
.LBE1444:
	.loc 2 140 0 is_stmt 1 discriminator 41 view .LVU175
	movq	%rax, %rbx
	jmp	.L365
.LVL151:
.L403:
	.loc 2 140 10 discriminator 28 view .LVU176
	movq	%rax, %rbp
.LVL152:
	.loc 2 140 10 is_stmt 0 discriminator 28 view .LVU177
	cmpq	$2, %rdx
	je	.L369
	movq	%rax, %rbx
.LVL153:
.L370:
.LEHB164:
	.loc 2 140 0 is_stmt 1 discriminator 53 view .LVU178
	call	system__standard_library__abort_undefer_direct@PLT
.LVL154:
.LEHE164:
	jmp	.L367
.LVL155:
.L369:
.LBB1445:
	.loc 2 140 10 discriminator 44 view .LVU179
	movq	%rax, %rdi
	call	__gnat_begin_handler_v1@PLT
.LVL156:
	.loc 2 140 10 is_stmt 0 discriminator 44 view .LVU180
	movq	%rax, %r12
.LVL157:
	.loc 2 140 10 discriminator 45 view .LVU181
	leaq	816(%rsp), %rdi
	movl	$0, %esi
.LEHB165:
	call	ada__numerics__big_numbers__big_integers__big_integerDF@PLT
.LVL158:
	.loc 2 140 10 discriminator 48 view .LVU182
	movq	%rbp, %rdi
	call	__gnat_reraise_zcx@PLT
.LVL159:
.LEHE165:
.L404:
	.loc 2 140 10 discriminator 50 view .LVU183
	movq	%rax, %rbx
.LVL160:
	.loc 2 140 10 discriminator 51 view .LVU184
	movq	%rax, %rdx
	movq	%r12, %rsi
	movq	%rbp, %rdi
.LEHB166:
	call	__gnat_end_handler_v1@PLT
.LVL161:
.LEHE166:
	.loc 2 140 10 discriminator 51 view .LVU185
	jmp	.L370
.LVL162:
.L402:
	.loc 2 140 10 discriminator 51 view .LVU186
.LBE1445:
	.loc 2 140 0 is_stmt 1 discriminator 53 view .LVU187
	movq	%rax, %rbx
	jmp	.L370
.LVL163:
.L407:
	.loc 2 140 0 is_stmt 0 discriminator 53 view .LVU188
	movq	%rax, %rbp
.LVL164:
	.loc 2 140 0 discriminator 53 view .LVU189
	cmpq	$3, %rdx
	je	.L373
	movq	%rax, %rbx
.LVL165:
.L374:
.LEHB167:
.LBB1446:
	.loc 2 149 0 is_stmt 1 discriminator 42 view .LVU190
	call	system__standard_library__abort_undefer_direct@PLT
.LVL166:
.LEHE167:
	jmp	.L376
.LVL167:
.L373:
	.loc 2 149 0 is_stmt 0 discriminator 42 view .LVU191
	movq	%rax, %rdi
	call	__gnat_begin_handler_v1@PLT
.LVL168:
	.loc 2 149 0 discriminator 42 view .LVU192
	movq	%rax, %r12
.LVL169:
	.loc 2 149 0 discriminator 42 view .LVU193
	leaq	176(%rsp), %rdi
	movq	%rbp, %rsi
.LEHB168:
	call	__gnat_set_exception_parameter@PLT
.LVL170:
.LBB1428:
	.loc 2 149 12 is_stmt 1 view .LVU194
	leaq	176(%rsp), %rdi
	call	__gnat_raise_from_controlled_operation@PLT
.LVL171:
.LEHE168:
.L408:
	.loc 2 149 12 is_stmt 0 view .LVU195
	movq	%rax, %rbx
.LVL172:
	.loc 2 149 12 view .LVU196
	movq	%rax, %rdx
	movq	%r12, %rsi
	movq	%rbp, %rdi
.LEHB169:
	call	__gnat_end_handler_v1@PLT
.LVL173:
.LEHE169:
	.loc 2 149 12 view .LVU197
	jmp	.L374
.LVL174:
.L406:
	.loc 2 149 12 view .LVU198
.LBE1428:
	.loc 2 149 0 is_stmt 1 discriminator 42 view .LVU199
	movq	%rax, %rbx
	jmp	.L374
.LVL175:
.L411:
	.loc 2 149 0 is_stmt 0 discriminator 42 view .LVU200
	movq	%rax, %rbp
.LVL176:
	.loc 2 149 0 discriminator 42 view .LVU201
	cmpq	$4, %rdx
	je	.L378
	movq	%rax, %rbx
.LVL177:
.L379:
.LEHB170:
	.loc 2 149 0 discriminator 42 view .LVU202
.LBE1446:
.LBB1447:
	.loc 2 154 0 is_stmt 1 discriminator 33 view .LVU203
	call	system__standard_library__abort_undefer_direct@PLT
.LVL178:
.LEHE170:
	jmp	.L381
.LVL179:
.L378:
	.loc 2 154 0 is_stmt 0 discriminator 33 view .LVU204
	movq	%rax, %rdi
	call	__gnat_begin_handler_v1@PLT
.LVL180:
	.loc 2 154 0 discriminator 33 view .LVU205
	movq	%rax, %r12
.LVL181:
	.loc 2 154 0 discriminator 33 view .LVU206
	leaq	176(%rsp), %rdi
	movq	%rbp, %rsi
.LEHB171:
	call	__gnat_set_exception_parameter@PLT
.LVL182:
.LBB1434:
	.loc 2 154 15 is_stmt 1 view .LVU207
	leaq	176(%rsp), %rdi
	call	__gnat_raise_from_controlled_operation@PLT
.LVL183:
.LEHE171:
.L412:
	.loc 2 154 15 is_stmt 0 view .LVU208
	movq	%rax, %rbx
.LVL184:
	.loc 2 154 15 view .LVU209
	movq	%rax, %rdx
	movq	%r12, %rsi
	movq	%rbp, %rdi
.LEHB172:
	call	__gnat_end_handler_v1@PLT
.LVL185:
.LEHE172:
	.loc 2 154 15 view .LVU210
	jmp	.L379
.LVL186:
.L410:
	.loc 2 154 15 view .LVU211
.LBE1434:
	.loc 2 154 0 is_stmt 1 discriminator 33 view .LVU212
	movq	%rax, %rbx
	jmp	.L379
.LVL187:
.L415:
	.loc 2 154 0 is_stmt 0 discriminator 33 view .LVU213
	movq	%rax, %rbp
.LVL188:
	.loc 2 154 0 discriminator 33 view .LVU214
	cmpq	$5, %rdx
	je	.L383
	movq	%rax, %rbx
.LVL189:
.L384:
.LEHB173:
	.loc 2 154 0 discriminator 33 view .LVU215
.LBE1447:
.LBB1448:
	.loc 2 159 0 is_stmt 1 discriminator 42 view .LVU216
	call	system__standard_library__abort_undefer_direct@PLT
.LVL190:
.LEHE173:
	jmp	.L386
.LVL191:
.L383:
	.loc 2 159 0 is_stmt 0 discriminator 42 view .LVU217
	movq	%rax, %rdi
	call	__gnat_begin_handler_v1@PLT
.LVL192:
	.loc 2 159 0 discriminator 42 view .LVU218
	movq	%rax, %r12
.LVL193:
	.loc 2 159 0 discriminator 42 view .LVU219
	leaq	176(%rsp), %rdi
	movq	%rbp, %rsi
.LEHB174:
	call	__gnat_set_exception_parameter@PLT
.LVL194:
.LBB1431:
	.loc 2 159 15 is_stmt 1 view .LVU220
	leaq	176(%rsp), %rdi
	call	__gnat_raise_from_controlled_operation@PLT
.LVL195:
.LEHE174:
.L416:
	.loc 2 159 15 is_stmt 0 view .LVU221
	movq	%rax, %rbx
.LVL196:
	.loc 2 159 15 view .LVU222
	movq	%rax, %rdx
	movq	%r12, %rsi
	movq	%rbp, %rdi
.LEHB175:
	call	__gnat_end_handler_v1@PLT
.LVL197:
.LEHE175:
	.loc 2 159 15 view .LVU223
	jmp	.L384
.LVL198:
.L414:
	.loc 2 159 15 view .LVU224
.LBE1431:
	.loc 2 159 0 is_stmt 1 discriminator 42 view .LVU225
	movq	%rax, %rbx
	jmp	.L384
.LVL199:
.L419:
	.loc 2 159 0 is_stmt 0 discriminator 42 view .LVU226
	movq	%rax, %rbp
.LVL200:
	.loc 2 159 0 discriminator 42 view .LVU227
	cmpq	$6, %rdx
	je	.L388
	movq	%rax, %rbx
.LVL201:
.L389:
.LEHB176:
	.loc 2 159 0 discriminator 42 view .LVU228
.LBE1448:
.LBB1449:
	.loc 2 160 0 is_stmt 1 discriminator 11 view .LVU229
	call	system__standard_library__abort_undefer_direct@PLT
.LVL202:
.LEHE176:
	jmp	.L391
.LVL203:
.L388:
	.loc 2 160 0 is_stmt 0 discriminator 11 view .LVU230
	movq	%rax, %rdi
	call	__gnat_begin_handler_v1@PLT
.LVL204:
	.loc 2 160 0 discriminator 11 view .LVU231
	movq	%rax, %r12
.LVL205:
	.loc 2 160 0 discriminator 11 view .LVU232
	leaq	176(%rsp), %rdi
	movq	%rbp, %rsi
.LEHB177:
	call	__gnat_set_exception_parameter@PLT
.LVL206:
.LBB1438:
	.loc 2 160 15 is_stmt 1 view .LVU233
	leaq	176(%rsp), %rdi
	call	__gnat_raise_from_controlled_operation@PLT
.LVL207:
.LEHE177:
.L420:
	.loc 2 160 15 is_stmt 0 view .LVU234
	movq	%rax, %rbx
.LVL208:
	.loc 2 160 15 view .LVU235
	movq	%rax, %rdx
	movq	%r12, %rsi
	movq	%rbp, %rdi
.LEHB178:
	call	__gnat_end_handler_v1@PLT
.LVL209:
.LEHE178:
	.loc 2 160 15 view .LVU236
	jmp	.L389
.LVL210:
.L418:
	.loc 2 160 15 view .LVU237
.LBE1438:
	.loc 2 160 0 is_stmt 1 discriminator 11 view .LVU238
	movq	%rax, %rbx
	jmp	.L389
.L417:
	.loc 2 160 0 is_stmt 0 discriminator 26 view .LVU239
	movq	%rax, %rbx
.L391:
	leaq	16(%rsp), %r10
.LEHB179:
	call	main__fc__to_big_real__B1226b___finalizer.26
.LVL211:
.LEHE179:
	jmp	.L367
.LVL212:
.L423:
	.loc 2 160 0 discriminator 26 view .LVU240
	movq	%rax, %rbp
.LVL213:
	.loc 2 160 0 discriminator 26 view .LVU241
	cmpq	$7, %rdx
	je	.L393
	movq	%rax, %rbx
.LVL214:
.L394:
.LEHB180:
	.loc 2 160 0 discriminator 26 view .LVU242
.LBE1449:
.LBB1450:
	.loc 2 165 0 is_stmt 1 discriminator 11 view .LVU243
	call	system__standard_library__abort_undefer_direct@PLT
.LVL215:
.LEHE180:
	jmp	.L396
.LVL216:
.L393:
	.loc 2 165 0 is_stmt 0 discriminator 11 view .LVU244
	movq	%rax, %rdi
	call	__gnat_begin_handler_v1@PLT
.LVL217:
	.loc 2 165 0 discriminator 11 view .LVU245
	movq	%rax, %r12
.LVL218:
	.loc 2 165 0 discriminator 11 view .LVU246
	leaq	176(%rsp), %rdi
	movq	%rbp, %rsi
.LEHB181:
	call	__gnat_set_exception_parameter@PLT
.LVL219:
.LBB1441:
	.loc 2 165 15 is_stmt 1 view .LVU247
	leaq	176(%rsp), %rdi
	call	__gnat_raise_from_controlled_operation@PLT
.LVL220:
.LEHE181:
.L424:
	.loc 2 165 15 is_stmt 0 view .LVU248
	movq	%rax, %rbx
.LVL221:
	.loc 2 165 15 view .LVU249
	movq	%rax, %rdx
	movq	%r12, %rsi
	movq	%rbp, %rdi
.LEHB182:
	call	__gnat_end_handler_v1@PLT
.LVL222:
.LEHE182:
	.loc 2 165 15 view .LVU250
	jmp	.L394
.LVL223:
.L422:
	.loc 2 165 15 view .LVU251
.LBE1441:
	.loc 2 165 0 is_stmt 1 discriminator 11 view .LVU252
	movq	%rax, %rbx
	jmp	.L394
.L421:
	.loc 2 165 0 is_stmt 0 discriminator 26 view .LVU253
	movq	%rax, %rbx
.L396:
	leaq	16(%rsp), %r10
.LEHB183:
	call	main__fc__to_big_real__B1238b___finalizer.27
.LVL224:
	jmp	.L367
.LVL225:
.L425:
	.loc 2 165 0 discriminator 26 view .LVU254
.LBE1450:
.LBB1451:
	.loc 2 168 0 is_stmt 1 discriminator 22 view .LVU255
	movq	%rax, %rbx
	leaq	16(%rsp), %r10
	call	main__fc__to_big_real__B1252b___finalizer.28
.LVL226:
.LEHE183:
	jmp	.L367
.L453:
.LBE1451:
	.loc 2 169 0 view .LVU256
	leaq	16(%rsp), %r10
.LEHB184:
	call	main__fc__to_big_real___finalizer.29
.LVL227:
	.loc 2 169 11 view .LVU257
	movq	%rbp, %rax
	addq	$1216, %rsp
	.cfi_def_cfa_offset 32
.LEHE184:
	popq	%rbx
	.cfi_def_cfa_offset 24
	popq	%rbp
	.cfi_def_cfa_offset 16
.LVL228:
	.loc 2 169 11 is_stmt 0 view .LVU258
	popq	%r12
	.cfi_def_cfa_offset 8
.LVL229:
	.loc 2 169 11 view .LVU259
	ret
	.cfi_endproc
.LFE19:
	.section	.gcc_except_table.main__fc__to_big_real.19,"a",@progbits
	.align 4
.LLSDA19:
	.byte	0xff
	.byte	0x9b
	.uleb128 .LLSDATT19-.LLSDATTD19
.LLSDATTD19:
	.byte	0x1
	.uleb128 .LLSDACSE19-.LLSDACSB19
.LLSDACSB19:
	.uleb128 .LEHB116-.LFB19
	.uleb128 .LEHE116-.LEHB116
	.uleb128 0
	.uleb128 0
	.uleb128 .LEHB117-.LFB19
	.uleb128 .LEHE117-.LEHB117
	.uleb128 .L398-.LFB19
	.uleb128 0
	.uleb128 .LEHB118-.LFB19
	.uleb128 .LEHE118-.LEHB118
	.uleb128 0
	.uleb128 0
	.uleb128 .LEHB119-.LFB19
	.uleb128 .LEHE119-.LEHB119
	.uleb128 .L398-.LFB19
	.uleb128 0
	.uleb128 .LEHB120-.LFB19
	.uleb128 .LEHE120-.LEHB120
	.uleb128 .L399-.LFB19
	.uleb128 0
	.uleb128 .LEHB121-.LFB19
	.uleb128 .LEHE121-.LEHB121
	.uleb128 .L400-.LFB19
	.uleb128 0x3
	.uleb128 .LEHB122-.LFB19
	.uleb128 .LEHE122-.LEHB122
	.uleb128 .L398-.LFB19
	.uleb128 0
	.uleb128 .LEHB123-.LFB19
	.uleb128 .LEHE123-.LEHB123
	.uleb128 .L402-.LFB19
	.uleb128 0
	.uleb128 .LEHB124-.LFB19
	.uleb128 .LEHE124-.LEHB124
	.uleb128 .L403-.LFB19
	.uleb128 0x5
	.uleb128 .LEHB125-.LFB19
	.uleb128 .LEHE125-.LEHB125
	.uleb128 .L398-.LFB19
	.uleb128 0
	.uleb128 .LEHB126-.LFB19
	.uleb128 .LEHE126-.LEHB126
	.uleb128 .L405-.LFB19
	.uleb128 0
	.uleb128 .LEHB127-.LFB19
	.uleb128 .LEHE127-.LEHB127
	.uleb128 .L398-.LFB19
	.uleb128 0
	.uleb128 .LEHB128-.LFB19
	.uleb128 .LEHE128-.LEHB128
	.uleb128 .L405-.LFB19
	.uleb128 0
	.uleb128 .LEHB129-.LFB19
	.uleb128 .LEHE129-.LEHB129
	.uleb128 .L406-.LFB19
	.uleb128 0
	.uleb128 .LEHB130-.LFB19
	.uleb128 .LEHE130-.LEHB130
	.uleb128 .L407-.LFB19
	.uleb128 0x7
	.uleb128 .LEHB131-.LFB19
	.uleb128 .LEHE131-.LEHB131
	.uleb128 .L405-.LFB19
	.uleb128 0
	.uleb128 .LEHB132-.LFB19
	.uleb128 .LEHE132-.LEHB132
	.uleb128 .L398-.LFB19
	.uleb128 0
	.uleb128 .LEHB133-.LFB19
	.uleb128 .LEHE133-.LEHB133
	.uleb128 .L413-.LFB19
	.uleb128 0
	.uleb128 .LEHB134-.LFB19
	.uleb128 .LEHE134-.LEHB134
	.uleb128 .L409-.LFB19
	.uleb128 0
	.uleb128 .LEHB135-.LFB19
	.uleb128 .LEHE135-.LEHB135
	.uleb128 .L398-.LFB19
	.uleb128 0
	.uleb128 .LEHB136-.LFB19
	.uleb128 .LEHE136-.LEHB136
	.uleb128 .L409-.LFB19
	.uleb128 0
	.uleb128 .LEHB137-.LFB19
	.uleb128 .LEHE137-.LEHB137
	.uleb128 .L410-.LFB19
	.uleb128 0
	.uleb128 .LEHB138-.LFB19
	.uleb128 .LEHE138-.LEHB138
	.uleb128 .L411-.LFB19
	.uleb128 0x9
	.uleb128 .LEHB139-.LFB19
	.uleb128 .LEHE139-.LEHB139
	.uleb128 .L409-.LFB19
	.uleb128 0
	.uleb128 .LEHB140-.LFB19
	.uleb128 .LEHE140-.LEHB140
	.uleb128 .L398-.LFB19
	.uleb128 0
	.uleb128 .LEHB141-.LFB19
	.uleb128 .LEHE141-.LEHB141
	.uleb128 .L413-.LFB19
	.uleb128 0
	.uleb128 .LEHB142-.LFB19
	.uleb128 .LEHE142-.LEHB142
	.uleb128 .L398-.LFB19
	.uleb128 0
	.uleb128 .LEHB143-.LFB19
	.uleb128 .LEHE143-.LEHB143
	.uleb128 .L413-.LFB19
	.uleb128 0
	.uleb128 .LEHB144-.LFB19
	.uleb128 .LEHE144-.LEHB144
	.uleb128 .L414-.LFB19
	.uleb128 0
	.uleb128 .LEHB145-.LFB19
	.uleb128 .LEHE145-.LEHB145
	.uleb128 .L415-.LFB19
	.uleb128 0xb
	.uleb128 .LEHB146-.LFB19
	.uleb128 .LEHE146-.LEHB146
	.uleb128 .L413-.LFB19
	.uleb128 0
	.uleb128 .LEHB147-.LFB19
	.uleb128 .LEHE147-.LEHB147
	.uleb128 .L398-.LFB19
	.uleb128 0
	.uleb128 .LEHB148-.LFB19
	.uleb128 .LEHE148-.LEHB148
	.uleb128 .L417-.LFB19
	.uleb128 0
	.uleb128 .LEHB149-.LFB19
	.uleb128 .LEHE149-.LEHB149
	.uleb128 .L418-.LFB19
	.uleb128 0
	.uleb128 .LEHB150-.LFB19
	.uleb128 .LEHE150-.LEHB150
	.uleb128 .L419-.LFB19
	.uleb128 0xd
	.uleb128 .LEHB151-.LFB19
	.uleb128 .LEHE151-.LEHB151
	.uleb128 .L417-.LFB19
	.uleb128 0
	.uleb128 .LEHB152-.LFB19
	.uleb128 .LEHE152-.LEHB152
	.uleb128 .L398-.LFB19
	.uleb128 0
	.uleb128 .LEHB153-.LFB19
	.uleb128 .LEHE153-.LEHB153
	.uleb128 .L421-.LFB19
	.uleb128 0
	.uleb128 .LEHB154-.LFB19
	.uleb128 .LEHE154-.LEHB154
	.uleb128 .L422-.LFB19
	.uleb128 0
	.uleb128 .LEHB155-.LFB19
	.uleb128 .LEHE155-.LEHB155
	.uleb128 .L423-.LFB19
	.uleb128 0xf
	.uleb128 .LEHB156-.LFB19
	.uleb128 .LEHE156-.LEHB156
	.uleb128 .L421-.LFB19
	.uleb128 0
	.uleb128 .LEHB157-.LFB19
	.uleb128 .LEHE157-.LEHB157
	.uleb128 .L398-.LFB19
	.uleb128 0
	.uleb128 .LEHB158-.LFB19
	.uleb128 .LEHE158-.LEHB158
	.uleb128 .L425-.LFB19
	.uleb128 0
	.uleb128 .LEHB159-.LFB19
	.uleb128 .LEHE159-.LEHB159
	.uleb128 .L398-.LFB19
	.uleb128 0
	.uleb128 .LEHB160-.LFB19
	.uleb128 .LEHE160-.LEHB160
	.uleb128 .L425-.LFB19
	.uleb128 0
	.uleb128 .LEHB161-.LFB19
	.uleb128 .LEHE161-.LEHB161
	.uleb128 .L398-.LFB19
	.uleb128 0
	.uleb128 .LEHB162-.LFB19
	.uleb128 .LEHE162-.LEHB162
	.uleb128 .L401-.LFB19
	.uleb128 0
	.uleb128 .LEHB163-.LFB19
	.uleb128 .LEHE163-.LEHB163
	.uleb128 .L399-.LFB19
	.uleb128 0
	.uleb128 .LEHB164-.LFB19
	.uleb128 .LEHE164-.LEHB164
	.uleb128 .L398-.LFB19
	.uleb128 0
	.uleb128 .LEHB165-.LFB19
	.uleb128 .LEHE165-.LEHB165
	.uleb128 .L404-.LFB19
	.uleb128 0
	.uleb128 .LEHB166-.LFB19
	.uleb128 .LEHE166-.LEHB166
	.uleb128 .L402-.LFB19
	.uleb128 0
	.uleb128 .LEHB167-.LFB19
	.uleb128 .LEHE167-.LEHB167
	.uleb128 .L405-.LFB19
	.uleb128 0
	.uleb128 .LEHB168-.LFB19
	.uleb128 .LEHE168-.LEHB168
	.uleb128 .L408-.LFB19
	.uleb128 0
	.uleb128 .LEHB169-.LFB19
	.uleb128 .LEHE169-.LEHB169
	.uleb128 .L406-.LFB19
	.uleb128 0
	.uleb128 .LEHB170-.LFB19
	.uleb128 .LEHE170-.LEHB170
	.uleb128 .L409-.LFB19
	.uleb128 0
	.uleb128 .LEHB171-.LFB19
	.uleb128 .LEHE171-.LEHB171
	.uleb128 .L412-.LFB19
	.uleb128 0
	.uleb128 .LEHB172-.LFB19
	.uleb128 .LEHE172-.LEHB172
	.uleb128 .L410-.LFB19
	.uleb128 0
	.uleb128 .LEHB173-.LFB19
	.uleb128 .LEHE173-.LEHB173
	.uleb128 .L413-.LFB19
	.uleb128 0
	.uleb128 .LEHB174-.LFB19
	.uleb128 .LEHE174-.LEHB174
	.uleb128 .L416-.LFB19
	.uleb128 0
	.uleb128 .LEHB175-.LFB19
	.uleb128 .LEHE175-.LEHB175
	.uleb128 .L414-.LFB19
	.uleb128 0
	.uleb128 .LEHB176-.LFB19
	.uleb128 .LEHE176-.LEHB176
	.uleb128 .L417-.LFB19
	.uleb128 0
	.uleb128 .LEHB177-.LFB19
	.uleb128 .LEHE177-.LEHB177
	.uleb128 .L420-.LFB19
	.uleb128 0
	.uleb128 .LEHB178-.LFB19
	.uleb128 .LEHE178-.LEHB178
	.uleb128 .L418-.LFB19
	.uleb128 0
	.uleb128 .LEHB179-.LFB19
	.uleb128 .LEHE179-.LEHB179
	.uleb128 .L398-.LFB19
	.uleb128 0
	.uleb128 .LEHB180-.LFB19
	.uleb128 .LEHE180-.LEHB180
	.uleb128 .L421-.LFB19
	.uleb128 0
	.uleb128 .LEHB181-.LFB19
	.uleb128 .LEHE181-.LEHB181
	.uleb128 .L424-.LFB19
	.uleb128 0
	.uleb128 .LEHB182-.LFB19
	.uleb128 .LEHE182-.LEHB182
	.uleb128 .L422-.LFB19
	.uleb128 0
	.uleb128 .LEHB183-.LFB19
	.uleb128 .LEHE183-.LEHB183
	.uleb128 .L398-.LFB19
	.uleb128 0
	.uleb128 .LEHB184-.LFB19
	.uleb128 .LEHE184-.LEHB184
	.uleb128 0
	.uleb128 0
.LLSDACSE19:
	.byte	0
	.byte	0
	.byte	0x1
	.byte	0x7d
	.byte	0x2
	.byte	0x7b
	.byte	0x3
	.byte	0x79
	.byte	0x4
	.byte	0x77
	.byte	0x5
	.byte	0x75
	.byte	0x6
	.byte	0x73
	.byte	0x7
	.byte	0x71
	.align 4
	.long	DW.ref.__gnat_others_value-.
	.long	DW.ref.__gnat_others_value-.
	.long	DW.ref.__gnat_others_value-.
	.long	DW.ref.__gnat_others_value-.
	.long	DW.ref.__gnat_others_value-.
	.long	DW.ref.__gnat_others_value-.
	.long	DW.ref.__gnat_others_value-.
.LLSDATT19:
	.section	.text.main__fc__to_big_real.19
	.size	main__fc__to_big_real.19, .-main__fc__to_big_real.19
	.section	.text.main__detect_bounces__B_2___finalizer.40,"ax",@progbits
	.align 2
	.type	main__detect_bounces__B_2___finalizer.40, @function
main__detect_bounces__B_2___finalizer.40:
.LFB97:
	.cfi_startproc
	.cfi_personality 0x9b,DW.ref.__gnat_personality_v0
	.cfi_lsda 0x1b,.LLSDA97
	pushq	%r14
	.cfi_def_cfa_offset 16
	.cfi_offset 14, -16
	pushq	%rbx
	.cfi_def_cfa_offset 24
	.cfi_offset 3, -24
.LEHB185:
	subq	$8, %rsp
	.cfi_def_cfa_offset 32
	movq	%r10, %rbx
	call	ada__exceptions__triggered_by_abort@PLT
	movl	%eax, %r14d
	call	*system__soft_links__abort_defer(%rip)
.LEHE185:
	movq	%rbx, %rdi
.LEHB186:
	call	system__finalization_primitives__finalize_master@PLT
.LEHE186:
	movl	$0, %ebx
.L458:
.LEHB187:
	call	*system__soft_links__abort_undefer(%rip)
	movl	%r14d, %eax
	xorl	$1, %eax
	testb	%al, %bl
	jne	.L461
	addq	$8, %rsp
	.cfi_remember_state
	.cfi_def_cfa_offset 24
	popq	%rbx
	.cfi_def_cfa_offset 16
	popq	%r14
	.cfi_def_cfa_offset 8
	ret
.L461:
	.cfi_restore_state
	movl	$253, %esi
	leaq	.LC65(%rip), %rdi
	call	__gnat_rcheck_PE_Finalize_Raised_Exception@PLT
.L459:
	movq	%rax, %rdi
	cmpq	$1, %rdx
	je	.L457
	call	_Unwind_Resume@PLT
.L457:
	movq	%rax, %rbx
	movq	%rax, %rdi
	call	__gnat_begin_handler_v1@PLT
	movq	%rax, %rsi
	movl	$0, %edx
	movq	%rbx, %rdi
	call	__gnat_end_handler_v1@PLT
.LEHE187:
	movl	$1, %ebx
	jmp	.L458
	.cfi_endproc
.LFE97:
	.section	.gcc_except_table.main__detect_bounces__B_2___finalizer.40,"a",@progbits
	.align 4
.LLSDA97:
	.byte	0xff
	.byte	0x9b
	.uleb128 .LLSDATT97-.LLSDATTD97
.LLSDATTD97:
	.byte	0x1
	.uleb128 .LLSDACSE97-.LLSDACSB97
.LLSDACSB97:
	.uleb128 .LEHB185-.LFB97
	.uleb128 .LEHE185-.LEHB185
	.uleb128 0
	.uleb128 0
	.uleb128 .LEHB186-.LFB97
	.uleb128 .LEHE186-.LEHB186
	.uleb128 .L459-.LFB97
	.uleb128 0x1
	.uleb128 .LEHB187-.LFB97
	.uleb128 .LEHE187-.LEHB187
	.uleb128 0
	.uleb128 0
.LLSDACSE97:
	.byte	0x1
	.byte	0
	.align 4
	.long	DW.ref.__gnat_others_value-.
.LLSDATT97:
	.section	.text.main__detect_bounces__B_2___finalizer.40
	.size	main__detect_bounces__B_2___finalizer.40, .-main__detect_bounces__B_2___finalizer.40
	.section	.text.main__univ__init__B928b__L990b__B995b___finalizer.56,"ax",@progbits
	.align 2
	.type	main__univ__init__B928b__L990b__B995b___finalizer.56, @function
main__univ__init__B928b__L990b__B995b___finalizer.56:
.LFB3:
	.cfi_startproc
	.cfi_personality 0x9b,DW.ref.__gnat_personality_v0
	.cfi_lsda 0x1b,.LLSDA3
	pushq	%r14
	.cfi_def_cfa_offset 16
	.cfi_offset 14, -16
	pushq	%rbx
	.cfi_def_cfa_offset 24
	.cfi_offset 3, -24
.LEHB188:
	subq	$8, %rsp
	.cfi_def_cfa_offset 32
	movq	%r10, %rbx
	call	ada__exceptions__triggered_by_abort@PLT
	movl	%eax, %r14d
	call	*system__soft_links__abort_defer(%rip)
.LEHE188:
	addq	$24, %rbx
	movq	%rbx, %rdi
.LEHB189:
	call	system__finalization_primitives__finalize_master@PLT
.LEHE189:
	movl	$0, %ebx
.L466:
.LEHB190:
	call	*system__soft_links__abort_undefer(%rip)
	movl	%r14d, %eax
	xorl	$1, %eax
	testb	%al, %bl
	jne	.L469
	addq	$8, %rsp
	.cfi_remember_state
	.cfi_def_cfa_offset 24
	popq	%rbx
	.cfi_def_cfa_offset 16
	popq	%r14
	.cfi_def_cfa_offset 8
	ret
.L469:
	.cfi_restore_state
	movl	$9, %esi
	leaq	.LC69(%rip), %rdi
	call	__gnat_rcheck_PE_Finalize_Raised_Exception@PLT
.L467:
	movq	%rax, %rdi
	cmpq	$1, %rdx
	je	.L465
	call	_Unwind_Resume@PLT
.L465:
	movq	%rax, %rbx
	movq	%rax, %rdi
	call	__gnat_begin_handler_v1@PLT
	movq	%rax, %rsi
	movl	$0, %edx
	movq	%rbx, %rdi
	call	__gnat_end_handler_v1@PLT
.LEHE190:
	movl	$1, %ebx
	jmp	.L466
	.cfi_endproc
.LFE3:
	.section	.gcc_except_table.main__univ__init__B928b__L990b__B995b___finalizer.56,"a",@progbits
	.align 4
.LLSDA3:
	.byte	0xff
	.byte	0x9b
	.uleb128 .LLSDATT3-.LLSDATTD3
.LLSDATTD3:
	.byte	0x1
	.uleb128 .LLSDACSE3-.LLSDACSB3
.LLSDACSB3:
	.uleb128 .LEHB188-.LFB3
	.uleb128 .LEHE188-.LEHB188
	.uleb128 0
	.uleb128 0
	.uleb128 .LEHB189-.LFB3
	.uleb128 .LEHE189-.LEHB189
	.uleb128 .L467-.LFB3
	.uleb128 0x1
	.uleb128 .LEHB190-.LFB3
	.uleb128 .LEHE190-.LEHB190
	.uleb128 0
	.uleb128 0
.LLSDACSE3:
	.byte	0x1
	.byte	0
	.align 4
	.long	DW.ref.__gnat_others_value-.
.LLSDATT3:
	.section	.text.main__univ__init__B928b__L990b__B995b___finalizer.56
	.size	main__univ__init__B928b__L990b__B995b___finalizer.56, .-main__univ__init__B928b__L990b__B995b___finalizer.56
	.section	.rodata.main__univ__init.52.str1.1,"aMS",@progbits,1
.LC79:
	.string	"0"
	.section	.rodata
	.align 8
.LC1:
	.long	1
	.long	1
	.section	.text.main__univ__init.52,"ax",@progbits
	.align 2
	.type	main__univ__init.52, @function
main__univ__init.52:
.LVL230:
.LFB2:
	.file 3 "/workspaces/src/src/universe.adb"
	.loc 3 5 4 is_stmt 1 view -0
	.cfi_startproc
	.cfi_personality 0x9b,DW.ref.__gnat_personality_v0
	.cfi_lsda 0x1b,.LLSDA2
	.loc 3 5 4 is_stmt 0 view .LVU261
	pushq	%r13
	.cfi_def_cfa_offset 16
	.cfi_offset 13, -16
	pushq	%r12
	.cfi_def_cfa_offset 24
	.cfi_offset 12, -24
	pushq	%rbp
	.cfi_def_cfa_offset 32
	.cfi_offset 6, -32
	pushq	%rbx
	.cfi_def_cfa_offset 40
	.cfi_offset 3, -40
.LEHB191:
	subq	$3432, %rsp
	.cfi_def_cfa_offset 3472
.LEHE191:
	movq	%rdi, %r13
	.loc 3 5 4 is_stmt 1 discriminator 1 view .LVU262
	leaq	3472(%rsp), %rax
	movq	%rax, 360(%rsp)
.LVL231:
.LBB1456:
	.loc 3 7 9 view .LVU263
	movq	$0, 320(%rsp)
	movq	$0, 328(%rsp)
	movq	$0, 336(%rsp)
.LVL232:
.LBB1457:
	.loc 3 9 12 view .LVU264
	movl	$1, %r12d
	jmp	.L483
.LVL233:
.L527:
.LBB1458:
	.loc 3 13 42 discriminator 4 view .LVU265
	leaq	344(%rsp), %rcx
	leaq	2816(%rsp), %rdx
	leaq	2848(%rsp), %rdi
	movq	ada__numerics__big_numbers__big_integers__big_integerFD@GOTPCREL(%rip), %rsi
.LEHB192:
	call	system__finalization_primitives__attach_object_to_master@PLT
.LVL234:
.LEHE192:
	.loc 3 13 29 discriminator 6 view .LVU266
	movq	$0, 2864(%rsp)
	movq	$0, 2872(%rsp)
	movq	$0, 2880(%rsp)
.LVL235:
.LBB1459:
.LBB1460:
	.file 4 "/home/vscode/.local/libexec/spark/lib/gcc/x86_64-pc-linux-gnu/15.1.0/adainclude/a-nbnbre.ads"
	.loc 4 60 4 discriminator 1 view .LVU267
	leaq	3472(%rsp), %rax
.LVL236:
	.loc 4 60 4 is_stmt 0 discriminator 1 view .LVU268
	movq	%rax, 184(%rsp)
.LVL237:
	.loc 4 62 36 is_stmt 1 view .LVU269
	movq	$0, 160(%rsp)
	movq	$0, 168(%rsp)
	movq	$0, 176(%rsp)
.LVL238:
	.loc 4 62 50 discriminator 3 view .LVU270
	leaq	3344(%rsp), %rdi
	movl	$1, %esi
.LEHB193:
	call	ada__numerics__big_numbers__big_integers__to_big_integer@PLT
.LVL239:
	.loc 4 62 50 is_stmt 0 discriminator 6 view .LVU271
	leaq	160(%rsp), %rdx
	leaq	3344(%rsp), %rdi
	movq	ada__numerics__big_numbers__big_integers__big_integerFD@GOTPCREL(%rip), %rsi
	call	system__finalization_primitives__attach_object_to_node@PLT
.LVL240:
	.loc 4 62 36 is_stmt 1 discriminator 9 view .LVU272
	movq	%rsp, %rdi
	leaq	3344(%rsp), %rdx
	leaq	2848(%rsp), %rsi
.LVL241:
	.loc 4 62 36 is_stmt 0 discriminator 9 view .LVU273
	call	ada__numerics__big_numbers__big_reals__Odivide@PLT
.LVL242:
.LEHE193:
	.loc 4 62 0 is_stmt 1 view .LVU274
	leaq	160(%rsp), %r10
.LEHB194:
	call	ada__numerics__big_numbers__big_reals__to_big_real__B38s___finalizer.34
.LVL243:
	.loc 4 62 0 is_stmt 0 view .LVU275
.LBE1460:
.LBE1459:
	.loc 3 13 29 is_stmt 1 discriminator 10 view .LVU276
	leaq	344(%rsp), %rcx
	leaq	2864(%rsp), %rdx
	movq	%rsp, %rdi
	movq	ada__numerics__big_numbers__big_reals__big_realFD@GOTPCREL(%rip), %rsi
	call	system__finalization_primitives__attach_object_to_master@PLT
.LVL244:
	jmp	.L522
.LVL245:
.L509:
.LBB1462:
.LBB1461:
	.loc 4 62 0 discriminator 11 view .LVU277
	movq	%rax, %rbx
	leaq	160(%rsp), %r10
	call	ada__numerics__big_numbers__big_reals__to_big_real__B38s___finalizer.34
.LVL246:
	jmp	.L474
.LVL247:
.L522:
	.loc 4 62 0 is_stmt 0 discriminator 11 view .LVU278
.LBE1461:
.LBE1462:
	.loc 3 13 64 is_stmt 1 discriminator 12 view .LVU279
	movq	$0, 2896(%rsp)
	movq	$0, 2904(%rsp)
	movq	$0, 2912(%rsp)
.LVL248:
.LBB1463:
	.loc 3 13 64 is_stmt 0 discriminator 14 view .LVU280
	leaq	2928(%rsp), %rdi
	movq	%rbp, %rsi
	movq	%rbx, %rdx
	call	ada__numerics__big_numbers__big_integers__from_string@PLT
.LVL249:
.LBE1463:
	.loc 3 13 64 discriminator 16 view .LVU281
	leaq	344(%rsp), %rcx
	leaq	2896(%rsp), %rdx
	leaq	2928(%rsp), %rdi
	movq	ada__numerics__big_numbers__big_integers__big_integerFD@GOTPCREL(%rip), %rsi
	call	system__finalization_primitives__attach_object_to_master@PLT
.LVL250:
.LEHE194:
	.loc 3 13 51 is_stmt 1 discriminator 18 view .LVU282
	movq	$0, 2944(%rsp)
	movq	$0, 2952(%rsp)
	movq	$0, 2960(%rsp)
.LVL251:
.LBB1464:
.LBB1465:
	.loc 4 60 4 discriminator 1 view .LVU283
	leaq	3472(%rsp), %rax
.LVL252:
	.loc 4 60 4 is_stmt 0 discriminator 1 view .LVU284
	movq	%rax, 216(%rsp)
.LVL253:
	.loc 4 62 36 is_stmt 1 view .LVU285
	movq	$0, 192(%rsp)
	movq	$0, 200(%rsp)
	movq	$0, 208(%rsp)
.LVL254:
	.loc 4 62 50 discriminator 3 view .LVU286
	leaq	3360(%rsp), %rdi
	movl	$1, %esi
.LEHB195:
	call	ada__numerics__big_numbers__big_integers__to_big_integer@PLT
.LVL255:
	.loc 4 62 50 is_stmt 0 discriminator 6 view .LVU287
	leaq	192(%rsp), %rdx
	leaq	3360(%rsp), %rdi
	movq	ada__numerics__big_numbers__big_integers__big_integerFD@GOTPCREL(%rip), %rsi
	call	system__finalization_primitives__attach_object_to_node@PLT
.LVL256:
	.loc 4 62 36 is_stmt 1 discriminator 9 view .LVU288
	leaq	32(%rsp), %rdi
	leaq	3360(%rsp), %rdx
	leaq	2928(%rsp), %rsi
.LVL257:
	.loc 4 62 36 is_stmt 0 discriminator 9 view .LVU289
	call	ada__numerics__big_numbers__big_reals__Odivide@PLT
.LVL258:
.LEHE195:
	.loc 4 62 0 is_stmt 1 view .LVU290
	leaq	192(%rsp), %r10
.LEHB196:
	call	ada__numerics__big_numbers__big_reals__to_big_real__B38s___finalizer.34
.LVL259:
	.loc 4 62 0 is_stmt 0 view .LVU291
.LBE1465:
.LBE1464:
	.loc 3 13 51 is_stmt 1 discriminator 22 view .LVU292
	leaq	344(%rsp), %rcx
	leaq	2944(%rsp), %rdx
	leaq	32(%rsp), %rdi
	movq	ada__numerics__big_numbers__big_reals__big_realFD@GOTPCREL(%rip), %rsi
	call	system__finalization_primitives__attach_object_to_master@PLT
.LVL260:
	jmp	.L523
.LVL261:
.L510:
.LBB1467:
.LBB1466:
	.loc 4 62 0 discriminator 11 view .LVU293
	movq	%rax, %rbx
	leaq	192(%rsp), %r10
	call	ada__numerics__big_numbers__big_reals__to_big_real__B38s___finalizer.34
.LVL262:
.LEHE196:
	jmp	.L474
.LVL263:
.L523:
	.loc 4 62 0 is_stmt 0 discriminator 11 view .LVU294
.LBE1466:
.LBE1467:
	.loc 3 13 23 is_stmt 1 discriminator 24 view .LVU295
	movq	$0, 2976(%rsp)
	movq	$0, 2984(%rsp)
	movq	$0, 2992(%rsp)
.LVL264:
.LEHB197:
	.loc 3 13 23 is_stmt 0 discriminator 26 view .LVU296
	call	*system__soft_links__abort_defer(%rip)
.LVL265:
	.loc 3 13 23 discriminator 29 view .LVU297
	movdqa	(%rsp), %xmm0
	movaps	%xmm0, 368(%rsp)
	movdqa	16(%rsp), %xmm1
	movaps	%xmm1, 384(%rsp)
	.loc 3 13 23 discriminator 31 view .LVU298
	leaq	368(%rsp), %rdi
	movl	$1, %esi
	call	ada__numerics__big_numbers__big_reals__big_realDA@PLT
.LVL266:
.LEHE197:
.LEHB198:
	.loc 3 13 0 is_stmt 1 discriminator 34 view .LVU299
	call	system__standard_library__abort_undefer_direct@PLT
.LVL267:
.LEHE198:
.LEHB199:
	.loc 3 13 23 view .LVU300
	call	*system__soft_links__abort_defer(%rip)
.LVL268:
	.loc 3 13 23 is_stmt 0 discriminator 38 view .LVU301
	movdqa	32(%rsp), %xmm2
	movaps	%xmm2, 400(%rsp)
	movdqa	48(%rsp), %xmm3
	movaps	%xmm3, 416(%rsp)
	.loc 3 13 23 discriminator 40 view .LVU302
	leaq	400(%rsp), %rdi
	movl	$1, %esi
	call	ada__numerics__big_numbers__big_reals__big_realDA@PLT
.LVL269:
.LEHE199:
.LEHB200:
	.loc 3 13 0 is_stmt 1 discriminator 43 view .LVU303
	call	system__standard_library__abort_undefer_direct@PLT
.LVL270:
	.loc 3 13 23 view .LVU304
	leaq	344(%rsp), %rcx
	leaq	2976(%rsp), %rdx
	leaq	368(%rsp), %rdi
	movq	vector__vectorFD@GOTPCREL(%rip), %rsi
	call	system__finalization_primitives__attach_object_to_master@PLT
.LVL271:
	.loc 3 11 25 view .LVU305
	movq	$0, 3008(%rsp)
	movq	$0, 3016(%rsp)
	movq	$0, 3024(%rsp)
.LVL272:
.LBB1468:
.LBB1469:
	.file 5 "/workspaces/src/src/spatial.ads"
	.loc 5 37 7 view .LVU306
	movdqa	368(%rsp), %xmm4
	movaps	%xmm4, 432(%rsp)
	movdqa	384(%rsp), %xmm5
	movaps	%xmm5, 448(%rsp)
	movdqa	400(%rsp), %xmm6
	movaps	%xmm6, 464(%rsp)
	movdqa	416(%rsp), %xmm7
	movaps	%xmm7, 480(%rsp)
	leaq	432(%rsp), %rdi
	movl	$1, %esi
	call	vector__vectorDA@PLT
.LVL273:
	.loc 5 37 7 is_stmt 0 view .LVU307
.LBE1469:
.LBE1468:
	.loc 3 11 25 is_stmt 1 discriminator 4 view .LVU308
	leaq	344(%rsp), %rcx
	leaq	3008(%rsp), %rdx
	leaq	432(%rsp), %rdi
	movq	spatial__positionFD@GOTPCREL(%rip), %rsi
	call	system__finalization_primitives__attach_object_to_master@PLT
.LVL274:
	.loc 3 17 42 view .LVU309
	movq	$0, 3040(%rsp)
	movq	$0, 3048(%rsp)
	movq	$0, 3056(%rsp)
.LVL275:
.LBB1470:
	.loc 3 17 42 is_stmt 0 discriminator 2 view .LVU310
	leaq	3072(%rsp), %rdi
	movq	%rbp, %rsi
	movq	%rbx, %rdx
	call	ada__numerics__big_numbers__big_integers__from_string@PLT
.LVL276:
.LBE1470:
	.loc 3 17 42 discriminator 4 view .LVU311
	leaq	344(%rsp), %rcx
	leaq	3040(%rsp), %rdx
	leaq	3072(%rsp), %rdi
	movq	ada__numerics__big_numbers__big_integers__big_integerFD@GOTPCREL(%rip), %rsi
	call	system__finalization_primitives__attach_object_to_master@PLT
.LVL277:
.LEHE200:
	.loc 3 17 29 is_stmt 1 discriminator 6 view .LVU312
	movq	$0, 3088(%rsp)
	movq	$0, 3096(%rsp)
	movq	$0, 3104(%rsp)
.LVL278:
.LBB1471:
.LBB1472:
	.loc 4 60 4 discriminator 1 view .LVU313
	leaq	3472(%rsp), %rax
.LVL279:
	.loc 4 60 4 is_stmt 0 discriminator 1 view .LVU314
	movq	%rax, 248(%rsp)
.LVL280:
	.loc 4 62 36 is_stmt 1 view .LVU315
	movq	$0, 224(%rsp)
	movq	$0, 232(%rsp)
	movq	$0, 240(%rsp)
.LVL281:
	.loc 4 62 50 discriminator 3 view .LVU316
	leaq	3376(%rsp), %rdi
	movl	$1, %esi
.LEHB201:
	call	ada__numerics__big_numbers__big_integers__to_big_integer@PLT
.LVL282:
	.loc 4 62 50 is_stmt 0 discriminator 6 view .LVU317
	leaq	224(%rsp), %rdx
	leaq	3376(%rsp), %rdi
	movq	ada__numerics__big_numbers__big_integers__big_integerFD@GOTPCREL(%rip), %rsi
	call	system__finalization_primitives__attach_object_to_node@PLT
.LVL283:
	.loc 4 62 36 is_stmt 1 discriminator 9 view .LVU318
	leaq	64(%rsp), %rdi
	leaq	3376(%rsp), %rdx
	leaq	3072(%rsp), %rsi
.LVL284:
	.loc 4 62 36 is_stmt 0 discriminator 9 view .LVU319
	call	ada__numerics__big_numbers__big_reals__Odivide@PLT
.LVL285:
.LEHE201:
	.loc 4 62 0 is_stmt 1 view .LVU320
	leaq	224(%rsp), %r10
.LEHB202:
	call	ada__numerics__big_numbers__big_reals__to_big_real__B38s___finalizer.34
.LVL286:
	.loc 4 62 0 is_stmt 0 view .LVU321
.LBE1472:
.LBE1471:
	.loc 3 17 29 is_stmt 1 discriminator 10 view .LVU322
	leaq	344(%rsp), %rcx
	leaq	3088(%rsp), %rdx
	leaq	64(%rsp), %rdi
	movq	ada__numerics__big_numbers__big_reals__big_realFD@GOTPCREL(%rip), %rsi
	call	system__finalization_primitives__attach_object_to_master@PLT
.LVL287:
	jmp	.L524
.LVL288:
.L511:
.LBB1474:
.LBB1473:
	.loc 4 62 0 discriminator 11 view .LVU323
	movq	%rax, %rbx
	leaq	224(%rsp), %r10
	call	ada__numerics__big_numbers__big_reals__to_big_real__B38s___finalizer.34
.LVL289:
	jmp	.L474
.LVL290:
.L524:
	.loc 4 62 0 is_stmt 0 discriminator 11 view .LVU324
.LBE1473:
.LBE1474:
	.loc 3 17 64 is_stmt 1 discriminator 12 view .LVU325
	movq	$0, 3120(%rsp)
	movq	$0, 3128(%rsp)
	movq	$0, 3136(%rsp)
.LVL291:
.LBB1475:
	.loc 3 17 64 is_stmt 0 discriminator 14 view .LVU326
	leaq	3152(%rsp), %rdi
	movq	%rbp, %rsi
	movq	%rbx, %rdx
	call	ada__numerics__big_numbers__big_integers__from_string@PLT
.LVL292:
.LBE1475:
	.loc 3 17 64 discriminator 16 view .LVU327
	leaq	344(%rsp), %rcx
	leaq	3120(%rsp), %rdx
	leaq	3152(%rsp), %rdi
	movq	ada__numerics__big_numbers__big_integers__big_integerFD@GOTPCREL(%rip), %rsi
	call	system__finalization_primitives__attach_object_to_master@PLT
.LVL293:
.LEHE202:
	.loc 3 17 51 is_stmt 1 discriminator 18 view .LVU328
	movq	$0, 3168(%rsp)
	movq	$0, 3176(%rsp)
	movq	$0, 3184(%rsp)
.LVL294:
.LBB1476:
.LBB1477:
	.loc 4 60 4 discriminator 1 view .LVU329
	leaq	3472(%rsp), %rax
.LVL295:
	.loc 4 60 4 is_stmt 0 discriminator 1 view .LVU330
	movq	%rax, 280(%rsp)
.LVL296:
	.loc 4 62 36 is_stmt 1 view .LVU331
	movq	$0, 256(%rsp)
	movq	$0, 264(%rsp)
	movq	$0, 272(%rsp)
.LVL297:
	.loc 4 62 50 discriminator 3 view .LVU332
	leaq	3392(%rsp), %rdi
	movl	$1, %esi
.LEHB203:
	call	ada__numerics__big_numbers__big_integers__to_big_integer@PLT
.LVL298:
	.loc 4 62 50 is_stmt 0 discriminator 6 view .LVU333
	leaq	256(%rsp), %rdx
	leaq	3392(%rsp), %rdi
	movq	ada__numerics__big_numbers__big_integers__big_integerFD@GOTPCREL(%rip), %rsi
	call	system__finalization_primitives__attach_object_to_node@PLT
.LVL299:
	.loc 4 62 36 is_stmt 1 discriminator 9 view .LVU334
	leaq	96(%rsp), %rdi
	leaq	3392(%rsp), %rdx
	leaq	3152(%rsp), %rsi
.LVL300:
	.loc 4 62 36 is_stmt 0 discriminator 9 view .LVU335
	call	ada__numerics__big_numbers__big_reals__Odivide@PLT
.LVL301:
.LEHE203:
	.loc 4 62 0 is_stmt 1 view .LVU336
	leaq	256(%rsp), %r10
.LEHB204:
	call	ada__numerics__big_numbers__big_reals__to_big_real__B38s___finalizer.34
.LVL302:
	.loc 4 62 0 is_stmt 0 view .LVU337
.LBE1477:
.LBE1476:
	.loc 3 17 51 is_stmt 1 discriminator 22 view .LVU338
	leaq	344(%rsp), %rcx
	leaq	3168(%rsp), %rdx
	leaq	96(%rsp), %rdi
	movq	ada__numerics__big_numbers__big_reals__big_realFD@GOTPCREL(%rip), %rsi
	call	system__finalization_primitives__attach_object_to_master@PLT
.LVL303:
	jmp	.L525
.LVL304:
.L512:
.LBB1479:
.LBB1478:
	.loc 4 62 0 discriminator 11 view .LVU339
	movq	%rax, %rbx
	leaq	256(%rsp), %r10
	call	ada__numerics__big_numbers__big_reals__to_big_real__B38s___finalizer.34
.LVL305:
.LEHE204:
	jmp	.L474
.LVL306:
.L525:
	.loc 4 62 0 is_stmt 0 discriminator 11 view .LVU340
.LBE1478:
.LBE1479:
	.loc 3 17 23 is_stmt 1 discriminator 24 view .LVU341
	movq	$0, 3200(%rsp)
	movq	$0, 3208(%rsp)
	movq	$0, 3216(%rsp)
.LVL307:
.LEHB205:
	.loc 3 17 23 is_stmt 0 discriminator 26 view .LVU342
	call	*system__soft_links__abort_defer(%rip)
.LVL308:
	.loc 3 17 23 discriminator 29 view .LVU343
	movdqa	64(%rsp), %xmm0
	movaps	%xmm0, 496(%rsp)
	movdqa	80(%rsp), %xmm1
	movaps	%xmm1, 512(%rsp)
	.loc 3 17 23 discriminator 31 view .LVU344
	leaq	496(%rsp), %rdi
	movl	$1, %esi
	call	ada__numerics__big_numbers__big_reals__big_realDA@PLT
.LVL309:
.LEHE205:
.LEHB206:
	.loc 3 17 0 is_stmt 1 discriminator 34 view .LVU345
	call	system__standard_library__abort_undefer_direct@PLT
.LVL310:
.LEHE206:
.LEHB207:
	.loc 3 17 23 view .LVU346
	call	*system__soft_links__abort_defer(%rip)
.LVL311:
	.loc 3 17 23 is_stmt 0 discriminator 38 view .LVU347
	movdqa	96(%rsp), %xmm2
	movaps	%xmm2, 528(%rsp)
	movdqa	112(%rsp), %xmm3
	movaps	%xmm3, 544(%rsp)
	.loc 3 17 23 discriminator 40 view .LVU348
	leaq	528(%rsp), %rdi
	movl	$1, %esi
	call	ada__numerics__big_numbers__big_reals__big_realDA@PLT
.LVL312:
.LEHE207:
.LEHB208:
	.loc 3 17 0 is_stmt 1 discriminator 43 view .LVU349
	call	system__standard_library__abort_undefer_direct@PLT
.LVL313:
	.loc 3 17 23 view .LVU350
	leaq	344(%rsp), %rcx
	leaq	3200(%rsp), %rdx
	leaq	496(%rsp), %rdi
	movq	vector__vectorFD@GOTPCREL(%rip), %rsi
	call	system__finalization_primitives__attach_object_to_master@PLT
.LVL314:
	.loc 3 15 25 view .LVU351
	movq	$0, 3232(%rsp)
	movq	$0, 3240(%rsp)
	movq	$0, 3248(%rsp)
.LVL315:
.LBB1480:
.LBB1481:
	.loc 5 40 7 view .LVU352
	movdqa	496(%rsp), %xmm4
	movaps	%xmm4, 560(%rsp)
	movdqa	512(%rsp), %xmm5
	movaps	%xmm5, 576(%rsp)
	movdqa	528(%rsp), %xmm6
	movaps	%xmm6, 592(%rsp)
	movdqa	544(%rsp), %xmm7
	movaps	%xmm7, 608(%rsp)
	leaq	560(%rsp), %rdi
	movl	$1, %esi
	call	vector__vectorDA@PLT
.LVL316:
	.loc 5 40 7 is_stmt 0 view .LVU353
.LBE1481:
.LBE1480:
	.loc 3 15 25 is_stmt 1 discriminator 4 view .LVU354
	leaq	344(%rsp), %rcx
	leaq	3232(%rsp), %rdx
	leaq	560(%rsp), %rdi
	movq	spatial__velocityFD@GOTPCREL(%rip), %rsi
	call	system__finalization_primitives__attach_object_to_master@PLT
.LVL317:
	.loc 3 18 36 view .LVU355
	movq	$0, 3264(%rsp)
	movq	$0, 3272(%rsp)
	movq	$0, 3280(%rsp)
.LVL318:
.LBB1482:
	.loc 3 18 36 is_stmt 0 discriminator 2 view .LVU356
	leaq	3296(%rsp), %rdi
	movq	%rbp, %rsi
	movq	%rbx, %rdx
	call	ada__numerics__big_numbers__big_integers__from_string@PLT
.LVL319:
.LBE1482:
	.loc 3 18 36 discriminator 4 view .LVU357
	leaq	344(%rsp), %rcx
	leaq	3264(%rsp), %rdx
	leaq	3296(%rsp), %rdi
	movq	ada__numerics__big_numbers__big_integers__big_integerFD@GOTPCREL(%rip), %rsi
	call	system__finalization_primitives__attach_object_to_master@PLT
.LVL320:
.LEHE208:
	.loc 3 18 23 is_stmt 1 discriminator 6 view .LVU358
	movq	$0, 3312(%rsp)
	movq	$0, 3320(%rsp)
	movq	$0, 3328(%rsp)
.LVL321:
.LBB1483:
.LBB1484:
	.loc 4 60 4 discriminator 1 view .LVU359
	leaq	3472(%rsp), %rax
.LVL322:
	.loc 4 60 4 is_stmt 0 discriminator 1 view .LVU360
	movq	%rax, 312(%rsp)
.LVL323:
	.loc 4 62 36 is_stmt 1 view .LVU361
	movq	$0, 288(%rsp)
	movq	$0, 296(%rsp)
	movq	$0, 304(%rsp)
.LVL324:
	.loc 4 62 50 discriminator 3 view .LVU362
	leaq	3408(%rsp), %rdi
	movl	$1, %esi
.LEHB209:
	call	ada__numerics__big_numbers__big_integers__to_big_integer@PLT
.LVL325:
	.loc 4 62 50 is_stmt 0 discriminator 6 view .LVU363
	leaq	288(%rsp), %rdx
	leaq	3408(%rsp), %rdi
	movq	ada__numerics__big_numbers__big_integers__big_integerFD@GOTPCREL(%rip), %rsi
	call	system__finalization_primitives__attach_object_to_node@PLT
.LVL326:
	.loc 4 62 36 is_stmt 1 discriminator 9 view .LVU364
	leaq	128(%rsp), %rdi
	leaq	3408(%rsp), %rdx
	leaq	3296(%rsp), %rsi
.LVL327:
	.loc 4 62 36 is_stmt 0 discriminator 9 view .LVU365
	call	ada__numerics__big_numbers__big_reals__Odivide@PLT
.LVL328:
.LEHE209:
	.loc 4 62 0 is_stmt 1 view .LVU366
	leaq	288(%rsp), %r10
.LEHB210:
	call	ada__numerics__big_numbers__big_reals__to_big_real__B38s___finalizer.34
.LVL329:
	.loc 4 62 0 is_stmt 0 view .LVU367
.LBE1484:
.LBE1483:
	.loc 3 18 23 is_stmt 1 discriminator 10 view .LVU368
	leaq	344(%rsp), %rcx
	leaq	3312(%rsp), %rdx
	leaq	128(%rsp), %rdi
	movq	ada__numerics__big_numbers__big_reals__big_realFD@GOTPCREL(%rip), %rsi
	call	system__finalization_primitives__attach_object_to_master@PLT
.LVL330:
	jmp	.L526
.LVL331:
.L513:
.LBB1486:
.LBB1485:
	.loc 4 62 0 discriminator 11 view .LVU369
	movq	%rax, %rbx
	leaq	288(%rsp), %r10
	call	ada__numerics__big_numbers__big_reals__to_big_real__B38s___finalizer.34
.LVL332:
.LEHE210:
	jmp	.L474
.LVL333:
.L526:
.LEHB211:
	.loc 4 62 0 is_stmt 0 discriminator 11 view .LVU370
.LBE1485:
.LBE1486:
	.loc 3 10 15 is_stmt 1 view .LVU371
	call	*system__soft_links__abort_defer(%rip)
.LVL334:
	.loc 3 10 15 is_stmt 0 discriminator 3 view .LVU372
	movslq	%r12d, %rbx
	leaq	-5(%rbx,%rbx,4), %rax
	salq	$5, %rax
	leaq	1200(%rsp,%rax), %rdx
	movdqa	432(%rsp), %xmm0
	movaps	%xmm0, 1200(%rsp,%rax)
	movdqa	448(%rsp), %xmm1
	movaps	%xmm1, 16(%rdx)
	movdqa	464(%rsp), %xmm2
	movaps	%xmm2, 32(%rdx)
	movdqa	480(%rsp), %xmm3
	movaps	%xmm3, 48(%rdx)
	.loc 3 10 15 discriminator 5 view .LVU373
	movq	%rdx, %rdi
	movl	$1, %esi
	call	spatial__positionDA@PLT
.LVL335:
.LEHE211:
.LEHB212:
	.loc 3 10 0 is_stmt 1 discriminator 8 view .LVU374
	call	system__standard_library__abort_undefer_direct@PLT
.LVL336:
.LEHE212:
.LEHB213:
	.loc 3 10 15 view .LVU375
	call	*system__soft_links__abort_defer(%rip)
.LVL337:
	.loc 3 10 15 is_stmt 0 discriminator 12 view .LVU376
	leaq	(%rbx,%rbx,4), %rax
	salq	$5, %rax
	leaq	1104(%rsp,%rax), %rdx
	movdqa	560(%rsp), %xmm4
	movaps	%xmm4, 1104(%rsp,%rax)
	movdqa	576(%rsp), %xmm5
	movaps	%xmm5, 16(%rdx)
	movdqa	592(%rsp), %xmm6
	movaps	%xmm6, 32(%rdx)
	movdqa	608(%rsp), %xmm7
	movaps	%xmm7, 48(%rdx)
	.loc 3 10 15 discriminator 14 view .LVU377
	movq	%rdx, %rdi
	movl	$1, %esi
	call	spatial__velocityDA@PLT
.LVL338:
.LEHE213:
.LEHB214:
	.loc 3 10 0 is_stmt 1 discriminator 17 view .LVU378
	call	system__standard_library__abort_undefer_direct@PLT
.LVL339:
.LEHE214:
.LEHB215:
	.loc 3 10 15 view .LVU379
	call	*system__soft_links__abort_defer(%rip)
.LVL340:
	.loc 3 10 15 is_stmt 0 discriminator 21 view .LVU380
	leaq	(%rbx,%rbx,4), %rax
	salq	$5, %rax
	leaq	1168(%rsp,%rax), %rdx
	movdqa	128(%rsp), %xmm0
	movaps	%xmm0, 1168(%rsp,%rax)
	movdqa	144(%rsp), %xmm1
	movaps	%xmm1, 16(%rdx)
	.loc 3 10 15 discriminator 23 view .LVU381
	movq	%rdx, %rdi
	movl	$1, %esi
	call	ada__numerics__big_numbers__big_reals__big_realDA@PLT
.LVL341:
.LEHE215:
.LEHB216:
	.loc 3 10 0 is_stmt 1 discriminator 26 view .LVU382
	call	system__standard_library__abort_undefer_direct@PLT
.LVL342:
.LEHE216:
	.loc 3 9 0 view .LVU383
	leaq	320(%rsp), %r10
.LEHB217:
	call	main__univ__init__B928b__L990b__B995b___finalizer.56
.LVL343:
.LEHE217:
.LBE1458:
	.loc 3 9 12 discriminator 7 view .LVU384
	addl	$1, %r12d
.LVL344:
.L483:
	.loc 3 9 12 is_stmt 0 discriminator 8 view .LVU385
	cmpl	$10, %r12d
	jg	.L471
.LVL345:
.LBB1488:
	.loc 3 9 12 discriminator 2 view .LVU386
	movb	$1, 344(%rsp)
	movb	$0, 345(%rsp)
	movb	$0, 346(%rsp)
	movq	$0, 352(%rsp)
.LVL346:
	.loc 3 13 42 is_stmt 1 view .LVU387
	movq	$0, 2816(%rsp)
	movq	$0, 2824(%rsp)
	movq	$0, 2832(%rsp)
.LVL347:
.LBB1487:
	.loc 3 13 42 is_stmt 0 discriminator 2 view .LVU388
	leaq	.LC79(%rip), %rbp
	leaq	.LC1(%rip), %rbx
	leaq	2848(%rsp), %rdi
	movq	%rbp, %rsi
	movq	%rbx, %rdx
.LEHB218:
	call	ada__numerics__big_numbers__big_integers__from_string@PLT
.LVL348:
.LEHE218:
	jmp	.L527
.LVL349:
.L471:
	.loc 3 13 42 discriminator 2 view .LVU389
.LBE1487:
.LBE1488:
.LBE1457:
	.loc 3 8 9 is_stmt 1 view .LVU390
	movl	$0, 2800(%rsp)
	leaq	1200(%rsp), %rbx
	leaq	320(%rsp), %rdx
	leaq	main__univ__universeFD.6(%rip), %rsi
	movq	%rbx, %rdi
.LEHB219:
	call	system__finalization_primitives__attach_object_to_node@PLT
.LVL350:
.LEHE219:
.LEHB220:
	.loc 3 7 9 view .LVU391
	call	*system__soft_links__abort_defer(%rip)
.LVL351:
.LEHE220:
.LBB1490:
	.loc 3 7 9 is_stmt 0 discriminator 5 view .LVU392
	cmpq	%rbx, %r13
	je	.L484
	.loc 3 7 7 is_stmt 1 discriminator 6 view .LVU393
	movl	$1, %esi
	movq	%r13, %rdi
.LEHB221:
	call	main__univ__universeDF.83
.LVL352:
	.loc 3 7 9 discriminator 9 view .LVU394
	movq	%rbx, %rsi
	movl	$201, %ecx
	movq	%r13, %rdi
	rep movsq
	.loc 3 7 7 discriminator 9 view .LVU395
	movl	$1, %esi
	movq	%r13, %rdi
	call	main__univ__universeDA.53
.LVL353:
.LEHE221:
.L484:
.LEHB222:
.LBE1490:
	.loc 3 7 0 discriminator 11 view .LVU396
	call	system__standard_library__abort_undefer_direct@PLT
.LVL354:
.LEHE222:
	jmp	.L528
.LVL355:
.L499:
.LBB1491:
.LBB1489:
	.loc 3 13 0 discriminator 33 view .LVU397
	movq	%rax, %rbx
.LEHB223:
	call	system__standard_library__abort_undefer_direct@PLT
.LVL356:
	jmp	.L474
.L500:
	.loc 3 13 0 is_stmt 0 discriminator 42 view .LVU398
	movq	%rax, %rbx
	call	system__standard_library__abort_undefer_direct@PLT
.LVL357:
	jmp	.L474
.L501:
	.loc 3 17 0 is_stmt 1 discriminator 33 view .LVU399
	movq	%rax, %rbx
	call	system__standard_library__abort_undefer_direct@PLT
.LVL358:
	jmp	.L474
.L502:
	.loc 3 17 0 is_stmt 0 discriminator 42 view .LVU400
	movq	%rax, %rbx
	call	system__standard_library__abort_undefer_direct@PLT
.LVL359:
	jmp	.L474
.L503:
	.loc 3 10 0 is_stmt 1 discriminator 7 view .LVU401
	movq	%rax, %rbx
	call	system__standard_library__abort_undefer_direct@PLT
.LVL360:
	jmp	.L474
.L504:
	.loc 3 10 0 is_stmt 0 discriminator 16 view .LVU402
	movq	%rax, %rbx
	call	system__standard_library__abort_undefer_direct@PLT
.LVL361:
	jmp	.L474
.L505:
	.loc 3 10 0 discriminator 25 view .LVU403
	movq	%rax, %rbx
	call	system__standard_library__abort_undefer_direct@PLT
.LVL362:
.LEHE223:
	jmp	.L474
.L498:
	.loc 3 9 0 is_stmt 1 discriminator 4 view .LVU404
	movq	%rax, %rbx
.L474:
	leaq	320(%rsp), %r10
.LEHB224:
	call	main__univ__init__B928b__L990b__B995b___finalizer.56
.LVL363:
	jmp	.L492
.LVL364:
.L507:
	.loc 3 9 0 is_stmt 0 discriminator 4 view .LVU405
	movq	%rax, %rbp
	cmpq	$1, %rdx
	je	.L494
	movq	%rax, %rbx
.L495:
	.loc 3 9 0 discriminator 4 view .LVU406
.LBE1489:
.LBE1491:
	.loc 3 7 0 is_stmt 1 discriminator 4 view .LVU407
	call	system__standard_library__abort_undefer_direct@PLT
.LVL365:
.LEHE224:
	jmp	.L492
.L494:
.LVL366:
	.loc 3 7 0 is_stmt 0 discriminator 4 view .LVU408
	movq	%rax, %rdi
	call	__gnat_begin_handler_v1@PLT
.LVL367:
	.loc 3 7 0 discriminator 4 view .LVU409
	movq	%rax, %r12
.LVL368:
	.loc 3 7 0 discriminator 4 view .LVU410
	leaq	560(%rsp), %rdi
	movq	%rbp, %rsi
.LEHB225:
	call	__gnat_set_exception_parameter@PLT
.LVL369:
.LBB1492:
	.loc 3 7 9 is_stmt 1 view .LVU411
	leaq	560(%rsp), %rdi
	call	__gnat_raise_from_controlled_operation@PLT
.LVL370:
.LEHE225:
.L508:
	.loc 3 7 9 is_stmt 0 view .LVU412
	movq	%rax, %rbx
.LVL371:
	.loc 3 7 9 view .LVU413
	movq	%rax, %rdx
	movq	%r12, %rsi
	movq	%rbp, %rdi
.LEHB226:
	call	__gnat_end_handler_v1@PLT
.LVL372:
.LEHE226:
	.loc 3 7 9 view .LVU414
	jmp	.L495
.LVL373:
.L506:
	.loc 3 7 9 view .LVU415
.LBE1492:
	.loc 3 7 0 is_stmt 1 discriminator 4 view .LVU416
	movq	%rax, %rbx
	jmp	.L495
.L497:
	.loc 3 7 0 is_stmt 0 discriminator 18 view .LVU417
	movq	%rax, %rbx
.L492:
	leaq	320(%rsp), %r10
.LEHB227:
	call	main__univ__init__B928b___finalizer.57
.LVL374:
	movq	%rbx, %rdi
	call	_Unwind_Resume@PLT
.LVL375:
.L528:
	.loc 3 7 0 view .LVU418
	leaq	320(%rsp), %r10
	call	main__univ__init__B928b___finalizer.57
.LVL376:
.LBE1456:
	.loc 3 20 8 is_stmt 1 view .LVU419
	addq	$3432, %rsp
	.cfi_def_cfa_offset 40
.LEHE227:
	popq	%rbx
	.cfi_def_cfa_offset 32
	popq	%rbp
	.cfi_def_cfa_offset 24
	popq	%r12
	.cfi_def_cfa_offset 16
	popq	%r13
	.cfi_def_cfa_offset 8
.LVL377:
	.loc 3 20 8 is_stmt 0 view .LVU420
	ret
	.cfi_endproc
.LFE2:
	.section	.gcc_except_table.main__univ__init.52,"a",@progbits
	.align 4
.LLSDA2:
	.byte	0xff
	.byte	0x9b
	.uleb128 .LLSDATT2-.LLSDATTD2
.LLSDATTD2:
	.byte	0x1
	.uleb128 .LLSDACSE2-.LLSDACSB2
.LLSDACSB2:
	.uleb128 .LEHB191-.LFB2
	.uleb128 .LEHE191-.LEHB191
	.uleb128 0
	.uleb128 0
	.uleb128 .LEHB192-.LFB2
	.uleb128 .LEHE192-.LEHB192
	.uleb128 .L498-.LFB2
	.uleb128 0
	.uleb128 .LEHB193-.LFB2
	.uleb128 .LEHE193-.LEHB193
	.uleb128 .L509-.LFB2
	.uleb128 0
	.uleb128 .LEHB194-.LFB2
	.uleb128 .LEHE194-.LEHB194
	.uleb128 .L498-.LFB2
	.uleb128 0
	.uleb128 .LEHB195-.LFB2
	.uleb128 .LEHE195-.LEHB195
	.uleb128 .L510-.LFB2
	.uleb128 0
	.uleb128 .LEHB196-.LFB2
	.uleb128 .LEHE196-.LEHB196
	.uleb128 .L498-.LFB2
	.uleb128 0
	.uleb128 .LEHB197-.LFB2
	.uleb128 .LEHE197-.LEHB197
	.uleb128 .L499-.LFB2
	.uleb128 0
	.uleb128 .LEHB198-.LFB2
	.uleb128 .LEHE198-.LEHB198
	.uleb128 .L498-.LFB2
	.uleb128 0
	.uleb128 .LEHB199-.LFB2
	.uleb128 .LEHE199-.LEHB199
	.uleb128 .L500-.LFB2
	.uleb128 0
	.uleb128 .LEHB200-.LFB2
	.uleb128 .LEHE200-.LEHB200
	.uleb128 .L498-.LFB2
	.uleb128 0
	.uleb128 .LEHB201-.LFB2
	.uleb128 .LEHE201-.LEHB201
	.uleb128 .L511-.LFB2
	.uleb128 0
	.uleb128 .LEHB202-.LFB2
	.uleb128 .LEHE202-.LEHB202
	.uleb128 .L498-.LFB2
	.uleb128 0
	.uleb128 .LEHB203-.LFB2
	.uleb128 .LEHE203-.LEHB203
	.uleb128 .L512-.LFB2
	.uleb128 0
	.uleb128 .LEHB204-.LFB2
	.uleb128 .LEHE204-.LEHB204
	.uleb128 .L498-.LFB2
	.uleb128 0
	.uleb128 .LEHB205-.LFB2
	.uleb128 .LEHE205-.LEHB205
	.uleb128 .L501-.LFB2
	.uleb128 0
	.uleb128 .LEHB206-.LFB2
	.uleb128 .LEHE206-.LEHB206
	.uleb128 .L498-.LFB2
	.uleb128 0
	.uleb128 .LEHB207-.LFB2
	.uleb128 .LEHE207-.LEHB207
	.uleb128 .L502-.LFB2
	.uleb128 0
	.uleb128 .LEHB208-.LFB2
	.uleb128 .LEHE208-.LEHB208
	.uleb128 .L498-.LFB2
	.uleb128 0
	.uleb128 .LEHB209-.LFB2
	.uleb128 .LEHE209-.LEHB209
	.uleb128 .L513-.LFB2
	.uleb128 0
	.uleb128 .LEHB210-.LFB2
	.uleb128 .LEHE210-.LEHB210
	.uleb128 .L498-.LFB2
	.uleb128 0
	.uleb128 .LEHB211-.LFB2
	.uleb128 .LEHE211-.LEHB211
	.uleb128 .L503-.LFB2
	.uleb128 0
	.uleb128 .LEHB212-.LFB2
	.uleb128 .LEHE212-.LEHB212
	.uleb128 .L498-.LFB2
	.uleb128 0
	.uleb128 .LEHB213-.LFB2
	.uleb128 .LEHE213-.LEHB213
	.uleb128 .L504-.LFB2
	.uleb128 0
	.uleb128 .LEHB214-.LFB2
	.uleb128 .LEHE214-.LEHB214
	.uleb128 .L498-.LFB2
	.uleb128 0
	.uleb128 .LEHB215-.LFB2
	.uleb128 .LEHE215-.LEHB215
	.uleb128 .L505-.LFB2
	.uleb128 0
	.uleb128 .LEHB216-.LFB2
	.uleb128 .LEHE216-.LEHB216
	.uleb128 .L498-.LFB2
	.uleb128 0
	.uleb128 .LEHB217-.LFB2
	.uleb128 .LEHE217-.LEHB217
	.uleb128 .L497-.LFB2
	.uleb128 0
	.uleb128 .LEHB218-.LFB2
	.uleb128 .LEHE218-.LEHB218
	.uleb128 .L498-.LFB2
	.uleb128 0
	.uleb128 .LEHB219-.LFB2
	.uleb128 .LEHE219-.LEHB219
	.uleb128 .L497-.LFB2
	.uleb128 0
	.uleb128 .LEHB220-.LFB2
	.uleb128 .LEHE220-.LEHB220
	.uleb128 .L506-.LFB2
	.uleb128 0
	.uleb128 .LEHB221-.LFB2
	.uleb128 .LEHE221-.LEHB221
	.uleb128 .L507-.LFB2
	.uleb128 0x3
	.uleb128 .LEHB222-.LFB2
	.uleb128 .LEHE222-.LEHB222
	.uleb128 .L497-.LFB2
	.uleb128 0
	.uleb128 .LEHB223-.LFB2
	.uleb128 .LEHE223-.LEHB223
	.uleb128 .L498-.LFB2
	.uleb128 0
	.uleb128 .LEHB224-.LFB2
	.uleb128 .LEHE224-.LEHB224
	.uleb128 .L497-.LFB2
	.uleb128 0
	.uleb128 .LEHB225-.LFB2
	.uleb128 .LEHE225-.LEHB225
	.uleb128 .L508-.LFB2
	.uleb128 0
	.uleb128 .LEHB226-.LFB2
	.uleb128 .LEHE226-.LEHB226
	.uleb128 .L506-.LFB2
	.uleb128 0
	.uleb128 .LEHB227-.LFB2
	.uleb128 .LEHE227-.LEHB227
	.uleb128 0
	.uleb128 0
.LLSDACSE2:
	.byte	0
	.byte	0
	.byte	0x1
	.byte	0x7d
	.align 4
	.long	DW.ref.__gnat_others_value-.
.LLSDATT2:
	.section	.text.main__univ__init.52
	.size	main__univ__init.52, .-main__univ__init.52
	.section	.text.main__reset_universe__B600b___finalizer.61,"ax",@progbits
	.align 2
	.type	main__reset_universe__B600b___finalizer.61, @function
main__reset_universe__B600b___finalizer.61:
.LFB103:
	.cfi_startproc
	.cfi_personality 0x9b,DW.ref.__gnat_personality_v0
	.cfi_lsda 0x1b,.LLSDA103
	pushq	%r14
	.cfi_def_cfa_offset 16
	.cfi_offset 14, -16
	pushq	%rbx
	.cfi_def_cfa_offset 24
	.cfi_offset 3, -24
.LEHB228:
	subq	$8, %rsp
	.cfi_def_cfa_offset 32
	movq	%r10, %rbx
	call	ada__exceptions__triggered_by_abort@PLT
	movl	%eax, %r14d
	call	*system__soft_links__abort_defer(%rip)
.LEHE228:
	movq	%rbx, %rdi
.LEHB229:
	call	system__finalization_primitives__finalize_master@PLT
.LEHE229:
	movl	$0, %ebx
.L533:
.LEHB230:
	call	*system__soft_links__abort_undefer(%rip)
	movl	%r14d, %eax
	xorl	$1, %eax
	testb	%al, %bl
	jne	.L536
	addq	$8, %rsp
	.cfi_remember_state
	.cfi_def_cfa_offset 24
	popq	%rbx
	.cfi_def_cfa_offset 16
	popq	%r14
	.cfi_def_cfa_offset 8
	ret
.L536:
	.cfi_restore_state
	movl	$307, %esi
	leaq	.LC65(%rip), %rdi
	call	__gnat_rcheck_PE_Finalize_Raised_Exception@PLT
.L534:
	movq	%rax, %rdi
	cmpq	$1, %rdx
	je	.L532
	call	_Unwind_Resume@PLT
.L532:
	movq	%rax, %rbx
	movq	%rax, %rdi
	call	__gnat_begin_handler_v1@PLT
	movq	%rax, %rsi
	movl	$0, %edx
	movq	%rbx, %rdi
	call	__gnat_end_handler_v1@PLT
.LEHE230:
	movl	$1, %ebx
	jmp	.L533
	.cfi_endproc
.LFE103:
	.section	.gcc_except_table.main__reset_universe__B600b___finalizer.61,"a",@progbits
	.align 4
.LLSDA103:
	.byte	0xff
	.byte	0x9b
	.uleb128 .LLSDATT103-.LLSDATTD103
.LLSDATTD103:
	.byte	0x1
	.uleb128 .LLSDACSE103-.LLSDACSB103
.LLSDACSB103:
	.uleb128 .LEHB228-.LFB103
	.uleb128 .LEHE228-.LEHB228
	.uleb128 0
	.uleb128 0
	.uleb128 .LEHB229-.LFB103
	.uleb128 .LEHE229-.LEHB229
	.uleb128 .L534-.LFB103
	.uleb128 0x1
	.uleb128 .LEHB230-.LFB103
	.uleb128 .LEHE230-.LEHB230
	.uleb128 0
	.uleb128 0
.LLSDACSE103:
	.byte	0x1
	.byte	0
	.align 4
	.long	DW.ref.__gnat_others_value-.
.LLSDATT103:
	.section	.text.main__reset_universe__B600b___finalizer.61
	.size	main__reset_universe__B600b___finalizer.61, .-main__reset_universe__B600b___finalizer.61
	.section	.rodata
.LC80:
	.ascii	"vector.ads"
	.zero	1
	.section	.text.vector__sub__B50s___finalizer.63,"ax",@progbits
	.align 2
	.type	vector__sub__B50s___finalizer.63, @function
vector__sub__B50s___finalizer.63:
.LFB130:
	.cfi_startproc
	.cfi_personality 0x9b,DW.ref.__gnat_personality_v0
	.cfi_lsda 0x1b,.LLSDA130
	pushq	%r14
	.cfi_def_cfa_offset 16
	.cfi_offset 14, -16
	pushq	%rbx
	.cfi_def_cfa_offset 24
	.cfi_offset 3, -24
.LEHB231:
	subq	$8, %rsp
	.cfi_def_cfa_offset 32
	movq	%r10, %rbx
	call	ada__exceptions__triggered_by_abort@PLT
	movl	%eax, %r14d
	call	*system__soft_links__abort_defer(%rip)
.LEHE231:
	movq	%rbx, %rdi
.LEHB232:
	call	system__finalization_primitives__finalize_master@PLT
.LEHE232:
	movl	$0, %ebx
.L541:
.LEHB233:
	call	*system__soft_links__abort_undefer(%rip)
	movl	%r14d, %eax
	xorl	$1, %eax
	testb	%al, %bl
	jne	.L544
	addq	$8, %rsp
	.cfi_remember_state
	.cfi_def_cfa_offset 24
	popq	%rbx
	.cfi_def_cfa_offset 16
	popq	%r14
	.cfi_def_cfa_offset 8
	ret
.L544:
	.cfi_restore_state
	movl	$16, %esi
	leaq	.LC80(%rip), %rdi
	call	__gnat_rcheck_PE_Finalize_Raised_Exception@PLT
.L542:
	movq	%rax, %rdi
	cmpq	$1, %rdx
	je	.L540
	call	_Unwind_Resume@PLT
.L540:
	movq	%rax, %rbx
	movq	%rax, %rdi
	call	__gnat_begin_handler_v1@PLT
	movq	%rax, %rsi
	movl	$0, %edx
	movq	%rbx, %rdi
	call	__gnat_end_handler_v1@PLT
.LEHE233:
	movl	$1, %ebx
	jmp	.L541
	.cfi_endproc
.LFE130:
	.section	.gcc_except_table.vector__sub__B50s___finalizer.63,"a",@progbits
	.align 4
.LLSDA130:
	.byte	0xff
	.byte	0x9b
	.uleb128 .LLSDATT130-.LLSDATTD130
.LLSDATTD130:
	.byte	0x1
	.uleb128 .LLSDACSE130-.LLSDACSB130
.LLSDACSB130:
	.uleb128 .LEHB231-.LFB130
	.uleb128 .LEHE231-.LEHB231
	.uleb128 0
	.uleb128 0
	.uleb128 .LEHB232-.LFB130
	.uleb128 .LEHE232-.LEHB232
	.uleb128 .L542-.LFB130
	.uleb128 0x1
	.uleb128 .LEHB233-.LFB130
	.uleb128 .LEHE233-.LEHB233
	.uleb128 0
	.uleb128 0
.LLSDACSE130:
	.byte	0x1
	.byte	0
	.align 4
	.long	DW.ref.__gnat_others_value-.
.LLSDATT130:
	.section	.text.vector__sub__B50s___finalizer.63
	.size	vector__sub__B50s___finalizer.63, .-vector__sub__B50s___finalizer.63
	.section	.text.main__pair_sep2__B761b___finalizer.65,"ax",@progbits
	.align 2
	.type	main__pair_sep2__B761b___finalizer.65, @function
main__pair_sep2__B761b___finalizer.65:
.LFB112:
	.cfi_startproc
	.cfi_personality 0x9b,DW.ref.__gnat_personality_v0
	.cfi_lsda 0x1b,.LLSDA112
	pushq	%r14
	.cfi_def_cfa_offset 16
	.cfi_offset 14, -16
	pushq	%rbx
	.cfi_def_cfa_offset 24
	.cfi_offset 3, -24
.LEHB234:
	subq	$8, %rsp
	.cfi_def_cfa_offset 32
	movq	%r10, %rbx
	call	ada__exceptions__triggered_by_abort@PLT
	movl	%eax, %r14d
	call	*system__soft_links__abort_defer(%rip)
.LEHE234:
	movq	%rbx, %rdi
.LEHB235:
	call	system__finalization_primitives__finalize_master@PLT
.LEHE235:
	movl	$0, %ebx
.L549:
.LEHB236:
	call	*system__soft_links__abort_undefer(%rip)
	movl	%r14d, %eax
	xorl	$1, %eax
	testb	%al, %bl
	jne	.L552
	addq	$8, %rsp
	.cfi_remember_state
	.cfi_def_cfa_offset 24
	popq	%rbx
	.cfi_def_cfa_offset 16
	popq	%r14
	.cfi_def_cfa_offset 8
	ret
.L552:
	.cfi_restore_state
	movl	$180, %esi
	leaq	.LC65(%rip), %rdi
	call	__gnat_rcheck_PE_Finalize_Raised_Exception@PLT
.L550:
	movq	%rax, %rdi
	cmpq	$1, %rdx
	je	.L548
	call	_Unwind_Resume@PLT
.L548:
	movq	%rax, %rbx
	movq	%rax, %rdi
	call	__gnat_begin_handler_v1@PLT
	movq	%rax, %rsi
	movl	$0, %edx
	movq	%rbx, %rdi
	call	__gnat_end_handler_v1@PLT
.LEHE236:
	movl	$1, %ebx
	jmp	.L549
	.cfi_endproc
.LFE112:
	.section	.gcc_except_table.main__pair_sep2__B761b___finalizer.65,"a",@progbits
	.align 4
.LLSDA112:
	.byte	0xff
	.byte	0x9b
	.uleb128 .LLSDATT112-.LLSDATTD112
.LLSDATTD112:
	.byte	0x1
	.uleb128 .LLSDACSE112-.LLSDACSB112
.LLSDACSB112:
	.uleb128 .LEHB234-.LFB112
	.uleb128 .LEHE234-.LEHB234
	.uleb128 0
	.uleb128 0
	.uleb128 .LEHB235-.LFB112
	.uleb128 .LEHE235-.LEHB235
	.uleb128 .L550-.LFB112
	.uleb128 0x1
	.uleb128 .LEHB236-.LFB112
	.uleb128 .LEHE236-.LEHB236
	.uleb128 0
	.uleb128 0
.LLSDACSE112:
	.byte	0x1
	.byte	0
	.align 4
	.long	DW.ref.__gnat_others_value-.
.LLSDATT112:
	.section	.text.main__pair_sep2__B761b___finalizer.65
	.size	main__pair_sep2__B761b___finalizer.65, .-main__pair_sep2__B761b___finalizer.65
	.section	.text.vector__dot__B108s___finalizer.66,"ax",@progbits
	.align 2
	.type	vector__dot__B108s___finalizer.66, @function
vector__dot__B108s___finalizer.66:
.LFB135:
	.cfi_startproc
	.cfi_personality 0x9b,DW.ref.__gnat_personality_v0
	.cfi_lsda 0x1b,.LLSDA135
	pushq	%r14
	.cfi_def_cfa_offset 16
	.cfi_offset 14, -16
	pushq	%rbx
	.cfi_def_cfa_offset 24
	.cfi_offset 3, -24
.LEHB237:
	subq	$8, %rsp
	.cfi_def_cfa_offset 32
	movq	%r10, %rbx
	call	ada__exceptions__triggered_by_abort@PLT
	movl	%eax, %r14d
	call	*system__soft_links__abort_defer(%rip)
.LEHE237:
	movq	%rbx, %rdi
.LEHB238:
	call	system__finalization_primitives__finalize_master@PLT
.LEHE238:
	movl	$0, %ebx
.L557:
.LEHB239:
	call	*system__soft_links__abort_undefer(%rip)
	movl	%r14d, %eax
	xorl	$1, %eax
	testb	%al, %bl
	jne	.L560
	addq	$8, %rsp
	.cfi_remember_state
	.cfi_def_cfa_offset 24
	popq	%rbx
	.cfi_def_cfa_offset 16
	popq	%r14
	.cfi_def_cfa_offset 8
	ret
.L560:
	.cfi_restore_state
	movl	$22, %esi
	leaq	.LC80(%rip), %rdi
	call	__gnat_rcheck_PE_Finalize_Raised_Exception@PLT
.L558:
	movq	%rax, %rdi
	cmpq	$1, %rdx
	je	.L556
	call	_Unwind_Resume@PLT
.L556:
	movq	%rax, %rbx
	movq	%rax, %rdi
	call	__gnat_begin_handler_v1@PLT
	movq	%rax, %rsi
	movl	$0, %edx
	movq	%rbx, %rdi
	call	__gnat_end_handler_v1@PLT
.LEHE239:
	movl	$1, %ebx
	jmp	.L557
	.cfi_endproc
.LFE135:
	.section	.gcc_except_table.vector__dot__B108s___finalizer.66,"a",@progbits
	.align 4
.LLSDA135:
	.byte	0xff
	.byte	0x9b
	.uleb128 .LLSDATT135-.LLSDATTD135
.LLSDATTD135:
	.byte	0x1
	.uleb128 .LLSDACSE135-.LLSDACSB135
.LLSDACSB135:
	.uleb128 .LEHB237-.LFB135
	.uleb128 .LEHE237-.LEHB237
	.uleb128 0
	.uleb128 0
	.uleb128 .LEHB238-.LFB135
	.uleb128 .LEHE238-.LEHB238
	.uleb128 .L558-.LFB135
	.uleb128 0x1
	.uleb128 .LEHB239-.LFB135
	.uleb128 .LEHE239-.LEHB239
	.uleb128 0
	.uleb128 0
.LLSDACSE135:
	.byte	0x1
	.byte	0
	.align 4
	.long	DW.ref.__gnat_others_value-.
.LLSDATT135:
	.section	.text.vector__dot__B108s___finalizer.66
	.size	vector__dot__B108s___finalizer.66, .-vector__dot__B108s___finalizer.66
	.section	.text.main__no_future_collision_pair__B777b___finalizer.68,"ax",@progbits
	.align 2
	.type	main__no_future_collision_pair__B777b___finalizer.68, @function
main__no_future_collision_pair__B777b___finalizer.68:
.LFB114:
	.cfi_startproc
	.cfi_personality 0x9b,DW.ref.__gnat_personality_v0
	.cfi_lsda 0x1b,.LLSDA114
	pushq	%r14
	.cfi_def_cfa_offset 16
	.cfi_offset 14, -16
	pushq	%rbx
	.cfi_def_cfa_offset 24
	.cfi_offset 3, -24
.LEHB240:
	subq	$8, %rsp
	.cfi_def_cfa_offset 32
	movq	%r10, %rbx
	call	ada__exceptions__triggered_by_abort@PLT
	movl	%eax, %r14d
	call	*system__soft_links__abort_defer(%rip)
.LEHE240:
	movq	%rbx, %rdi
.LEHB241:
	call	system__finalization_primitives__finalize_master@PLT
.LEHE241:
	movl	$0, %ebx
.L565:
.LEHB242:
	call	*system__soft_links__abort_undefer(%rip)
	movl	%r14d, %eax
	xorl	$1, %eax
	testb	%al, %bl
	jne	.L568
	addq	$8, %rsp
	.cfi_remember_state
	.cfi_def_cfa_offset 24
	popq	%rbx
	.cfi_def_cfa_offset 16
	popq	%r14
	.cfi_def_cfa_offset 8
	ret
.L568:
	.cfi_restore_state
	movl	$185, %esi
	leaq	.LC65(%rip), %rdi
	call	__gnat_rcheck_PE_Finalize_Raised_Exception@PLT
.L566:
	movq	%rax, %rdi
	cmpq	$1, %rdx
	je	.L564
	call	_Unwind_Resume@PLT
.L564:
	movq	%rax, %rbx
	movq	%rax, %rdi
	call	__gnat_begin_handler_v1@PLT
	movq	%rax, %rsi
	movl	$0, %edx
	movq	%rbx, %rdi
	call	__gnat_end_handler_v1@PLT
.LEHE242:
	movl	$1, %ebx
	jmp	.L565
	.cfi_endproc
.LFE114:
	.section	.gcc_except_table.main__no_future_collision_pair__B777b___finalizer.68,"a",@progbits
	.align 4
.LLSDA114:
	.byte	0xff
	.byte	0x9b
	.uleb128 .LLSDATT114-.LLSDATTD114
.LLSDATTD114:
	.byte	0x1
	.uleb128 .LLSDACSE114-.LLSDACSB114
.LLSDACSB114:
	.uleb128 .LEHB240-.LFB114
	.uleb128 .LEHE240-.LEHB240
	.uleb128 0
	.uleb128 0
	.uleb128 .LEHB241-.LFB114
	.uleb128 .LEHE241-.LEHB241
	.uleb128 .L566-.LFB114
	.uleb128 0x1
	.uleb128 .LEHB242-.LFB114
	.uleb128 .LEHE242-.LEHB242
	.uleb128 0
	.uleb128 0
.LLSDACSE114:
	.byte	0x1
	.byte	0
	.align 4
	.long	DW.ref.__gnat_others_value-.
.LLSDATT114:
	.section	.text.main__no_future_collision_pair__B777b___finalizer.68
	.size	main__no_future_collision_pair__B777b___finalizer.68, .-main__no_future_collision_pair__B777b___finalizer.68
	.section	.text.main__print_collision__B_4___finalizer.71,"ax",@progbits
	.align 2
	.type	main__print_collision__B_4___finalizer.71, @function
main__print_collision__B_4___finalizer.71:
.LFB100:
	.cfi_startproc
	.cfi_personality 0x9b,DW.ref.__gnat_personality_v0
	.cfi_lsda 0x1b,.LLSDA100
	pushq	%r14
	.cfi_def_cfa_offset 16
	.cfi_offset 14, -16
	pushq	%rbx
	.cfi_def_cfa_offset 24
	.cfi_offset 3, -24
.LEHB243:
	subq	$8, %rsp
	.cfi_def_cfa_offset 32
	movq	%r10, %rbx
	call	ada__exceptions__triggered_by_abort@PLT
	movl	%eax, %r14d
	call	*system__soft_links__abort_defer(%rip)
.LEHE243:
	addq	$48, %rbx
	movq	%rbx, %rdi
.LEHB244:
	call	system__finalization_primitives__finalize_master@PLT
.LEHE244:
	movl	$0, %ebx
.L573:
.LEHB245:
	call	*system__soft_links__abort_undefer(%rip)
	movl	%r14d, %eax
	xorl	$1, %eax
	testb	%al, %bl
	jne	.L576
	addq	$8, %rsp
	.cfi_remember_state
	.cfi_def_cfa_offset 24
	popq	%rbx
	.cfi_def_cfa_offset 16
	popq	%r14
	.cfi_def_cfa_offset 8
	ret
.L576:
	.cfi_restore_state
	movl	$283, %esi
	leaq	.LC65(%rip), %rdi
	call	__gnat_rcheck_PE_Finalize_Raised_Exception@PLT
.L574:
	movq	%rax, %rdi
	cmpq	$1, %rdx
	je	.L572
	call	_Unwind_Resume@PLT
.L572:
	movq	%rax, %rbx
	movq	%rax, %rdi
	call	__gnat_begin_handler_v1@PLT
	movq	%rax, %rsi
	movl	$0, %edx
	movq	%rbx, %rdi
	call	__gnat_end_handler_v1@PLT
.LEHE245:
	movl	$1, %ebx
	jmp	.L573
	.cfi_endproc
.LFE100:
	.section	.gcc_except_table.main__print_collision__B_4___finalizer.71,"a",@progbits
	.align 4
.LLSDA100:
	.byte	0xff
	.byte	0x9b
	.uleb128 .LLSDATT100-.LLSDATTD100
.LLSDATTD100:
	.byte	0x1
	.uleb128 .LLSDACSE100-.LLSDACSB100
.LLSDACSB100:
	.uleb128 .LEHB243-.LFB100
	.uleb128 .LEHE243-.LEHB243
	.uleb128 0
	.uleb128 0
	.uleb128 .LEHB244-.LFB100
	.uleb128 .LEHE244-.LEHB244
	.uleb128 .L574-.LFB100
	.uleb128 0x1
	.uleb128 .LEHB245-.LFB100
	.uleb128 .LEHE245-.LEHB245
	.uleb128 0
	.uleb128 0
.LLSDACSE100:
	.byte	0x1
	.byte	0
	.align 4
	.long	DW.ref.__gnat_others_value-.
.LLSDATT100:
	.section	.text.main__print_collision__B_4___finalizer.71
	.size	main__print_collision__B_4___finalizer.71, .-main__print_collision__B_4___finalizer.71
	.section	.text.main__disp__capture__L_1__B1546b___finalizer.78,"ax",@progbits
	.align 2
	.type	main__disp__capture__L_1__B1546b___finalizer.78, @function
main__disp__capture__L_1__B1546b___finalizer.78:
.LFB50:
	.cfi_startproc
	.cfi_personality 0x9b,DW.ref.__gnat_personality_v0
	.cfi_lsda 0x1b,.LLSDA50
	pushq	%r14
	.cfi_def_cfa_offset 16
	.cfi_offset 14, -16
	pushq	%rbx
	.cfi_def_cfa_offset 24
	.cfi_offset 3, -24
.LEHB246:
	subq	$8, %rsp
	.cfi_def_cfa_offset 32
	movq	%r10, %rbx
	call	ada__exceptions__triggered_by_abort@PLT
	movl	%eax, %r14d
	call	*system__soft_links__abort_defer(%rip)
.LEHE246:
	addq	$32, %rbx
	movq	%rbx, %rdi
.LEHB247:
	call	system__finalization_primitives__finalize_master@PLT
.LEHE247:
	movl	$0, %ebx
.L581:
.LEHB248:
	call	*system__soft_links__abort_undefer(%rip)
	movl	%r14d, %eax
	xorl	$1, %eax
	testb	%al, %bl
	jne	.L584
	addq	$8, %rsp
	.cfi_remember_state
	.cfi_def_cfa_offset 24
	popq	%rbx
	.cfi_def_cfa_offset 16
	popq	%r14
	.cfi_def_cfa_offset 8
	ret
.L584:
	.cfi_restore_state
	movl	$49, %esi
	leaq	.LC71(%rip), %rdi
	call	__gnat_rcheck_PE_Finalize_Raised_Exception@PLT
.L582:
	movq	%rax, %rdi
	cmpq	$1, %rdx
	je	.L580
	call	_Unwind_Resume@PLT
.L580:
	movq	%rax, %rbx
	movq	%rax, %rdi
	call	__gnat_begin_handler_v1@PLT
	movq	%rax, %rsi
	movl	$0, %edx
	movq	%rbx, %rdi
	call	__gnat_end_handler_v1@PLT
.LEHE248:
	movl	$1, %ebx
	jmp	.L581
	.cfi_endproc
.LFE50:
	.section	.gcc_except_table.main__disp__capture__L_1__B1546b___finalizer.78,"a",@progbits
	.align 4
.LLSDA50:
	.byte	0xff
	.byte	0x9b
	.uleb128 .LLSDATT50-.LLSDATTD50
.LLSDATTD50:
	.byte	0x1
	.uleb128 .LLSDACSE50-.LLSDACSB50
.LLSDACSB50:
	.uleb128 .LEHB246-.LFB50
	.uleb128 .LEHE246-.LEHB246
	.uleb128 0
	.uleb128 0
	.uleb128 .LEHB247-.LFB50
	.uleb128 .LEHE247-.LEHB247
	.uleb128 .L582-.LFB50
	.uleb128 0x1
	.uleb128 .LEHB248-.LFB50
	.uleb128 .LEHE248-.LEHB248
	.uleb128 0
	.uleb128 0
.LLSDACSE50:
	.byte	0x1
	.byte	0
	.align 4
	.long	DW.ref.__gnat_others_value-.
.LLSDATT50:
	.section	.text.main__disp__capture__L_1__B1546b___finalizer.78
	.size	main__disp__capture__L_1__B1546b___finalizer.78, .-main__disp__capture__L_1__B1546b___finalizer.78
	.section	.text.main__disp__capture__L_1__B1566b___finalizer.79,"ax",@progbits
	.align 2
	.type	main__disp__capture__L_1__B1566b___finalizer.79, @function
main__disp__capture__L_1__B1566b___finalizer.79:
.LFB51:
	.cfi_startproc
	.cfi_personality 0x9b,DW.ref.__gnat_personality_v0
	.cfi_lsda 0x1b,.LLSDA51
	pushq	%r14
	.cfi_def_cfa_offset 16
	.cfi_offset 14, -16
	pushq	%rbx
	.cfi_def_cfa_offset 24
	.cfi_offset 3, -24
.LEHB249:
	subq	$8, %rsp
	.cfi_def_cfa_offset 32
	movq	%r10, %rbx
	call	ada__exceptions__triggered_by_abort@PLT
	movl	%eax, %r14d
	call	*system__soft_links__abort_defer(%rip)
.LEHE249:
	addq	$16, %rbx
	movq	%rbx, %rdi
.LEHB250:
	call	system__finalization_primitives__finalize_master@PLT
.LEHE250:
	movl	$0, %ebx
.L589:
.LEHB251:
	call	*system__soft_links__abort_undefer(%rip)
	movl	%r14d, %eax
	xorl	$1, %eax
	testb	%al, %bl
	jne	.L592
	addq	$8, %rsp
	.cfi_remember_state
	.cfi_def_cfa_offset 24
	popq	%rbx
	.cfi_def_cfa_offset 16
	popq	%r14
	.cfi_def_cfa_offset 8
	ret
.L592:
	.cfi_restore_state
	movl	$51, %esi
	leaq	.LC71(%rip), %rdi
	call	__gnat_rcheck_PE_Finalize_Raised_Exception@PLT
.L590:
	movq	%rax, %rdi
	cmpq	$1, %rdx
	je	.L588
	call	_Unwind_Resume@PLT
.L588:
	movq	%rax, %rbx
	movq	%rax, %rdi
	call	__gnat_begin_handler_v1@PLT
	movq	%rax, %rsi
	movl	$0, %edx
	movq	%rbx, %rdi
	call	__gnat_end_handler_v1@PLT
.LEHE251:
	movl	$1, %ebx
	jmp	.L589
	.cfi_endproc
.LFE51:
	.section	.gcc_except_table.main__disp__capture__L_1__B1566b___finalizer.79,"a",@progbits
	.align 4
.LLSDA51:
	.byte	0xff
	.byte	0x9b
	.uleb128 .LLSDATT51-.LLSDATTD51
.LLSDATTD51:
	.byte	0x1
	.uleb128 .LLSDACSE51-.LLSDACSB51
.LLSDACSB51:
	.uleb128 .LEHB249-.LFB51
	.uleb128 .LEHE249-.LEHB249
	.uleb128 0
	.uleb128 0
	.uleb128 .LEHB250-.LFB51
	.uleb128 .LEHE250-.LEHB250
	.uleb128 .L590-.LFB51
	.uleb128 0x1
	.uleb128 .LEHB251-.LFB51
	.uleb128 .LEHE251-.LEHB251
	.uleb128 0
	.uleb128 0
.LLSDACSE51:
	.byte	0x1
	.byte	0
	.align 4
	.long	DW.ref.__gnat_others_value-.
.LLSDATT51:
	.section	.text.main__disp__capture__L_1__B1566b___finalizer.79
	.size	main__disp__capture__L_1__B1566b___finalizer.79, .-main__disp__capture__L_1__B1566b___finalizer.79
	.section	.text.main__disp__capture___finalizer.80,"ax",@progbits
	.align 2
	.type	main__disp__capture___finalizer.80, @function
main__disp__capture___finalizer.80:
.LFB52:
	.cfi_startproc
	.cfi_personality 0x9b,DW.ref.__gnat_personality_v0
	.cfi_lsda 0x1b,.LLSDA52
	pushq	%r14
	.cfi_def_cfa_offset 16
	.cfi_offset 14, -16
	pushq	%rbx
	.cfi_def_cfa_offset 24
	.cfi_offset 3, -24
.LEHB252:
	subq	$8, %rsp
	.cfi_def_cfa_offset 32
	movq	%r10, %rbx
	call	ada__exceptions__triggered_by_abort@PLT
	movl	%eax, %r14d
	call	*system__soft_links__abort_defer(%rip)
.LEHE252:
	movq	%rbx, %rdi
.LEHB253:
	call	system__finalization_primitives__finalize_master@PLT
.LEHE253:
	movl	$0, %ebx
.L597:
.LEHB254:
	call	*system__soft_links__abort_undefer(%rip)
	movl	%r14d, %eax
	xorl	$1, %eax
	testb	%al, %bl
	jne	.L600
	addq	$8, %rsp
	.cfi_remember_state
	.cfi_def_cfa_offset 24
	popq	%rbx
	.cfi_def_cfa_offset 16
	popq	%r14
	.cfi_def_cfa_offset 8
	ret
.L600:
	.cfi_restore_state
	movl	$35, %esi
	leaq	.LC71(%rip), %rdi
	call	__gnat_rcheck_PE_Finalize_Raised_Exception@PLT
.L598:
	movq	%rax, %rdi
	cmpq	$1, %rdx
	je	.L596
	call	_Unwind_Resume@PLT
.L596:
	movq	%rax, %rbx
	movq	%rax, %rdi
	call	__gnat_begin_handler_v1@PLT
	movq	%rax, %rsi
	movl	$0, %edx
	movq	%rbx, %rdi
	call	__gnat_end_handler_v1@PLT
.LEHE254:
	movl	$1, %ebx
	jmp	.L597
	.cfi_endproc
.LFE52:
	.section	.gcc_except_table.main__disp__capture___finalizer.80,"a",@progbits
	.align 4
.LLSDA52:
	.byte	0xff
	.byte	0x9b
	.uleb128 .LLSDATT52-.LLSDATTD52
.LLSDATTD52:
	.byte	0x1
	.uleb128 .LLSDACSE52-.LLSDACSB52
.LLSDACSB52:
	.uleb128 .LEHB252-.LFB52
	.uleb128 .LEHE252-.LEHB252
	.uleb128 0
	.uleb128 0
	.uleb128 .LEHB253-.LFB52
	.uleb128 .LEHE253-.LEHB253
	.uleb128 .L598-.LFB52
	.uleb128 0x1
	.uleb128 .LEHB254-.LFB52
	.uleb128 .LEHE254-.LEHB254
	.uleb128 0
	.uleb128 0
.LLSDACSE52:
	.byte	0x1
	.byte	0
	.align 4
	.long	DW.ref.__gnat_others_value-.
.LLSDATT52:
	.section	.text.main__disp__capture___finalizer.80
	.size	main__disp__capture___finalizer.80, .-main__disp__capture___finalizer.80
	.section	.text.main__L_5__B832b___finalizer.84,"ax",@progbits
	.align 2
	.type	main__L_5__B832b___finalizer.84, @function
main__L_5__B832b___finalizer.84:
.LFB115:
	.cfi_startproc
	.cfi_personality 0x9b,DW.ref.__gnat_personality_v0
	.cfi_lsda 0x1b,.LLSDA115
	pushq	%r14
	.cfi_def_cfa_offset 16
	.cfi_offset 14, -16
	pushq	%rbx
	.cfi_def_cfa_offset 24
	.cfi_offset 3, -24
.LEHB255:
	subq	$8, %rsp
	.cfi_def_cfa_offset 32
	movq	%r10, %rbx
	call	ada__exceptions__triggered_by_abort@PLT
	movl	%eax, %r14d
	call	*system__soft_links__abort_defer(%rip)
.LEHE255:
	addq	$48, %rbx
	movq	%rbx, %rdi
.LEHB256:
	call	system__finalization_primitives__finalize_master@PLT
.LEHE256:
	movl	$0, %ebx
.L605:
.LEHB257:
	call	*system__soft_links__abort_undefer(%rip)
	movl	%r14d, %eax
	xorl	$1, %eax
	testb	%al, %bl
	jne	.L608
	addq	$8, %rsp
	.cfi_remember_state
	.cfi_def_cfa_offset 24
	popq	%rbx
	.cfi_def_cfa_offset 16
	popq	%r14
	.cfi_def_cfa_offset 8
	ret
.L608:
	.cfi_restore_state
	movl	$337, %esi
	leaq	.LC65(%rip), %rdi
	call	__gnat_rcheck_PE_Finalize_Raised_Exception@PLT
.L606:
	movq	%rax, %rdi
	cmpq	$1, %rdx
	je	.L604
	call	_Unwind_Resume@PLT
.L604:
	movq	%rax, %rbx
	movq	%rax, %rdi
	call	__gnat_begin_handler_v1@PLT
	movq	%rax, %rsi
	movl	$0, %edx
	movq	%rbx, %rdi
	call	__gnat_end_handler_v1@PLT
.LEHE257:
	movl	$1, %ebx
	jmp	.L605
	.cfi_endproc
.LFE115:
	.section	.gcc_except_table.main__L_5__B832b___finalizer.84,"a",@progbits
	.align 4
.LLSDA115:
	.byte	0xff
	.byte	0x9b
	.uleb128 .LLSDATT115-.LLSDATTD115
.LLSDATTD115:
	.byte	0x1
	.uleb128 .LLSDACSE115-.LLSDACSB115
.LLSDACSB115:
	.uleb128 .LEHB255-.LFB115
	.uleb128 .LEHE255-.LEHB255
	.uleb128 0
	.uleb128 0
	.uleb128 .LEHB256-.LFB115
	.uleb128 .LEHE256-.LEHB256
	.uleb128 .L606-.LFB115
	.uleb128 0x1
	.uleb128 .LEHB257-.LFB115
	.uleb128 .LEHE257-.LEHB257
	.uleb128 0
	.uleb128 0
.LLSDACSE115:
	.byte	0x1
	.byte	0
	.align 4
	.long	DW.ref.__gnat_others_value-.
.LLSDATT115:
	.section	.text.main__L_5__B832b___finalizer.84
	.size	main__L_5__B832b___finalizer.84, .-main__L_5__B832b___finalizer.84
	.section	.text.main__B_6__B865b___finalizer.85,"ax",@progbits
	.align 2
	.type	main__B_6__B865b___finalizer.85, @function
main__B_6__B865b___finalizer.85:
.LFB116:
	.cfi_startproc
	.cfi_personality 0x9b,DW.ref.__gnat_personality_v0
	.cfi_lsda 0x1b,.LLSDA116
	pushq	%r14
	.cfi_def_cfa_offset 16
	.cfi_offset 14, -16
	pushq	%rbx
	.cfi_def_cfa_offset 24
	.cfi_offset 3, -24
.LEHB258:
	subq	$8, %rsp
	.cfi_def_cfa_offset 32
	movq	%r10, %rbx
	call	ada__exceptions__triggered_by_abort@PLT
	movl	%eax, %r14d
	call	*system__soft_links__abort_defer(%rip)
.LEHE258:
	addq	$32, %rbx
	movq	%rbx, %rdi
.LEHB259:
	call	system__finalization_primitives__finalize_master@PLT
.LEHE259:
	movl	$0, %ebx
.L613:
.LEHB260:
	call	*system__soft_links__abort_undefer(%rip)
	movl	%r14d, %eax
	xorl	$1, %eax
	testb	%al, %bl
	jne	.L616
	addq	$8, %rsp
	.cfi_remember_state
	.cfi_def_cfa_offset 24
	popq	%rbx
	.cfi_def_cfa_offset 16
	popq	%r14
	.cfi_def_cfa_offset 8
	ret
.L616:
	.cfi_restore_state
	movl	$355, %esi
	leaq	.LC65(%rip), %rdi
	call	__gnat_rcheck_PE_Finalize_Raised_Exception@PLT
.L614:
	movq	%rax, %rdi
	cmpq	$1, %rdx
	je	.L612
	call	_Unwind_Resume@PLT
.L612:
	movq	%rax, %rbx
	movq	%rax, %rdi
	call	__gnat_begin_handler_v1@PLT
	movq	%rax, %rsi
	movl	$0, %edx
	movq	%rbx, %rdi
	call	__gnat_end_handler_v1@PLT
.LEHE260:
	movl	$1, %ebx
	jmp	.L613
	.cfi_endproc
.LFE116:
	.section	.gcc_except_table.main__B_6__B865b___finalizer.85,"a",@progbits
	.align 4
.LLSDA116:
	.byte	0xff
	.byte	0x9b
	.uleb128 .LLSDATT116-.LLSDATTD116
.LLSDATTD116:
	.byte	0x1
	.uleb128 .LLSDACSE116-.LLSDACSB116
.LLSDACSB116:
	.uleb128 .LEHB258-.LFB116
	.uleb128 .LEHE258-.LEHB258
	.uleb128 0
	.uleb128 0
	.uleb128 .LEHB259-.LFB116
	.uleb128 .LEHE259-.LEHB259
	.uleb128 .L614-.LFB116
	.uleb128 0x1
	.uleb128 .LEHB260-.LFB116
	.uleb128 .LEHE260-.LEHB260
	.uleb128 0
	.uleb128 0
.LLSDACSE116:
	.byte	0x1
	.byte	0
	.align 4
	.long	DW.ref.__gnat_others_value-.
.LLSDATT116:
	.section	.text.main__B_6__B865b___finalizer.85
	.size	main__B_6__B865b___finalizer.85, .-main__B_6__B865b___finalizer.85
	.section	.text.main__B_6__B891b___finalizer.86,"ax",@progbits
	.align 2
	.type	main__B_6__B891b___finalizer.86, @function
main__B_6__B891b___finalizer.86:
.LFB117:
	.cfi_startproc
	.cfi_personality 0x9b,DW.ref.__gnat_personality_v0
	.cfi_lsda 0x1b,.LLSDA117
	pushq	%r14
	.cfi_def_cfa_offset 16
	.cfi_offset 14, -16
	pushq	%rbx
	.cfi_def_cfa_offset 24
	.cfi_offset 3, -24
.LEHB261:
	subq	$8, %rsp
	.cfi_def_cfa_offset 32
	movq	%r10, %rbx
	call	ada__exceptions__triggered_by_abort@PLT
	movl	%eax, %r14d
	call	*system__soft_links__abort_defer(%rip)
.LEHE261:
	addq	$16, %rbx
	movq	%rbx, %rdi
.LEHB262:
	call	system__finalization_primitives__finalize_master@PLT
.LEHE262:
	movl	$0, %ebx
.L621:
.LEHB263:
	call	*system__soft_links__abort_undefer(%rip)
	movl	%r14d, %eax
	xorl	$1, %eax
	testb	%al, %bl
	jne	.L624
	addq	$8, %rsp
	.cfi_remember_state
	.cfi_def_cfa_offset 24
	popq	%rbx
	.cfi_def_cfa_offset 16
	popq	%r14
	.cfi_def_cfa_offset 8
	ret
.L624:
	.cfi_restore_state
	movl	$358, %esi
	leaq	.LC65(%rip), %rdi
	call	__gnat_rcheck_PE_Finalize_Raised_Exception@PLT
.L622:
	movq	%rax, %rdi
	cmpq	$1, %rdx
	je	.L620
	call	_Unwind_Resume@PLT
.L620:
	movq	%rax, %rbx
	movq	%rax, %rdi
	call	__gnat_begin_handler_v1@PLT
	movq	%rax, %rsi
	movl	$0, %edx
	movq	%rbx, %rdi
	call	__gnat_end_handler_v1@PLT
.LEHE263:
	movl	$1, %ebx
	jmp	.L621
	.cfi_endproc
.LFE117:
	.section	.gcc_except_table.main__B_6__B891b___finalizer.86,"a",@progbits
	.align 4
.LLSDA117:
	.byte	0xff
	.byte	0x9b
	.uleb128 .LLSDATT117-.LLSDATTD117
.LLSDATTD117:
	.byte	0x1
	.uleb128 .LLSDACSE117-.LLSDACSB117
.LLSDACSB117:
	.uleb128 .LEHB261-.LFB117
	.uleb128 .LEHE261-.LEHB261
	.uleb128 0
	.uleb128 0
	.uleb128 .LEHB262-.LFB117
	.uleb128 .LEHE262-.LEHB262
	.uleb128 .L622-.LFB117
	.uleb128 0x1
	.uleb128 .LEHB263-.LFB117
	.uleb128 .LEHE263-.LEHB263
	.uleb128 0
	.uleb128 0
.LLSDACSE117:
	.byte	0x1
	.byte	0
	.align 4
	.long	DW.ref.__gnat_others_value-.
.LLSDATT117:
	.section	.text.main__B_6__B891b___finalizer.86
	.size	main__B_6__B891b___finalizer.86, .-main__B_6__B891b___finalizer.86
	.section	.text.main___finalizer.87,"ax",@progbits
	.align 2
	.type	main___finalizer.87, @function
main___finalizer.87:
.LFB118:
	.cfi_startproc
	.cfi_personality 0x9b,DW.ref.__gnat_personality_v0
	.cfi_lsda 0x1b,.LLSDA118
	pushq	%r14
	.cfi_def_cfa_offset 16
	.cfi_offset 14, -16
	pushq	%rbx
	.cfi_def_cfa_offset 24
	.cfi_offset 3, -24
.LEHB264:
	subq	$8, %rsp
	.cfi_def_cfa_offset 32
	movq	%r10, %rbx
	call	ada__exceptions__triggered_by_abort@PLT
	movl	%eax, %r14d
	call	*system__soft_links__abort_defer(%rip)
.LEHE264:
	movq	%rbx, %rdi
.LEHB265:
	call	system__finalization_primitives__finalize_master@PLT
.LEHE265:
	movl	$0, %ebx
.L629:
.LEHB266:
	call	*system__soft_links__abort_undefer(%rip)
	movl	%r14d, %eax
	xorl	$1, %eax
	testb	%al, %bl
	jne	.L632
	addq	$8, %rsp
	.cfi_remember_state
	.cfi_def_cfa_offset 24
	popq	%rbx
	.cfi_def_cfa_offset 16
	popq	%r14
	.cfi_def_cfa_offset 8
	ret
.L632:
	.cfi_restore_state
	movl	$116, %esi
	leaq	.LC65(%rip), %rdi
	call	__gnat_rcheck_PE_Finalize_Raised_Exception@PLT
.L630:
	movq	%rax, %rdi
	cmpq	$1, %rdx
	je	.L628
	call	_Unwind_Resume@PLT
.L628:
	movq	%rax, %rbx
	movq	%rax, %rdi
	call	__gnat_begin_handler_v1@PLT
	movq	%rax, %rsi
	movl	$0, %edx
	movq	%rbx, %rdi
	call	__gnat_end_handler_v1@PLT
.LEHE266:
	movl	$1, %ebx
	jmp	.L629
	.cfi_endproc
.LFE118:
	.section	.gcc_except_table.main___finalizer.87,"a",@progbits
	.align 4
.LLSDA118:
	.byte	0xff
	.byte	0x9b
	.uleb128 .LLSDATT118-.LLSDATTD118
.LLSDATTD118:
	.byte	0x1
	.uleb128 .LLSDACSE118-.LLSDACSB118
.LLSDACSB118:
	.uleb128 .LEHB264-.LFB118
	.uleb128 .LEHE264-.LEHB264
	.uleb128 0
	.uleb128 0
	.uleb128 .LEHB265-.LFB118
	.uleb128 .LEHE265-.LEHB265
	.uleb128 .L630-.LFB118
	.uleb128 0x1
	.uleb128 .LEHB266-.LFB118
	.uleb128 .LEHE266-.LEHB266
	.uleb128 0
	.uleb128 0
.LLSDACSE118:
	.byte	0x1
	.byte	0
	.align 4
	.long	DW.ref.__gnat_others_value-.
.LLSDATT118:
	.section	.text.main___finalizer.87
	.size	main___finalizer.87, .-main___finalizer.87
	.section	.text.main__univ__tick.30,"ax",@progbits
	.align 2
	.type	main__univ__tick.30, @function
main__univ__tick.30:
.LVL378:
.LFB14:
	.loc 3 66 4 is_stmt 1 view -0
	.cfi_startproc
	.cfi_personality 0x9b,DW.ref.__gnat_personality_v0
	.cfi_lsda 0x1b,.LLSDA14
	.loc 3 66 4 is_stmt 0 view .LVU422
	pushq	%r14
	.cfi_def_cfa_offset 16
	.cfi_offset 14, -16
	pushq	%r13
	.cfi_def_cfa_offset 24
	.cfi_offset 13, -24
	pushq	%r12
	.cfi_def_cfa_offset 32
	.cfi_offset 12, -32
	pushq	%rbp
	.cfi_def_cfa_offset 40
	.cfi_offset 6, -40
	pushq	%rbx
	.cfi_def_cfa_offset 48
	.cfi_offset 3, -48
.LEHB267:
	subq	$736, %rsp
	.cfi_def_cfa_offset 784
	movq	%rdi, %r13
	.loc 3 66 4 is_stmt 1 discriminator 1 view .LVU423
	leaq	784(%rsp), %rax
	movq	%rax, 24(%rsp)
.LVL379:
	.loc 3 67 7 view .LVU424
	movl	$1, %r12d
	jmp	.L639
.LVL380:
.L651:
.LBB1519:
	.loc 3 69 19 discriminator 1 view .LVU425
	movl	$69, %esi
	leaq	.LC69(%rip), %rdi
	call	__gnat_rcheck_CE_Invalid_Data@PLT
.LVL381:
.L652:
	.loc 3 87 11 discriminator 1 view .LVU426
	movl	$87, %esi
	leaq	.LC69(%rip), %rdi
	call	__gnat_rcheck_CE_Index_Check@PLT
.LVL382:
.LEHE267:
.L653:
.LBB1520:
	.loc 3 88 19 discriminator 2 view .LVU427
	leaq	32(%rsp), %r14
	movq	%rsp, %rdx
	movq	spatial__positionFD@GOTPCREL(%rip), %rsi
	movq	%r14, %rdi
.LEHB268:
	call	system__finalization_primitives__attach_object_to_node@PLT
.LVL383:
.LEHE268:
.LEHB269:
	.loc 3 87 26 view .LVU428
	call	*system__soft_links__abort_defer(%rip)
.LVL384:
.LEHE269:
.LBB1521:
	.loc 3 87 26 is_stmt 0 discriminator 8 view .LVU429
	cmpq	%rbp, %r14
	je	.L637
	.loc 3 87 21 is_stmt 1 discriminator 9 view .LVU430
	movl	$1, %esi
	movq	%rbp, %rdi
.LEHB270:
	call	spatial__positionDF@PLT
.LVL385:
	.loc 3 87 26 discriminator 12 view .LVU431
	movdqa	32(%rsp), %xmm0
	movups	%xmm0, 0(%rbp)
	movdqa	48(%rsp), %xmm1
	movups	%xmm1, 16(%rbp)
	movdqa	64(%rsp), %xmm2
	movups	%xmm2, 32(%rbp)
	movdqa	80(%rsp), %xmm3
	movups	%xmm3, 48(%rbp)
	.loc 3 87 21 discriminator 13 view .LVU432
	movl	$1, %esi
	movq	%rbp, %rdi
	call	spatial__positionDA@PLT
.LVL386:
.LEHE270:
.L637:
.LEHB271:
.LBE1521:
	.loc 3 87 0 discriminator 15 view .LVU433
	call	system__standard_library__abort_undefer_direct@PLT
.LVL387:
.LEHE271:
	.loc 3 87 0 is_stmt 0 view .LVU434
	movq	%rsp, %r10
.LEHB272:
	call	main__univ__tick__L_2__B1147b___finalizer.33
.LVL388:
.LEHE272:
.LBE1520:
	.loc 3 89 17 is_stmt 1 view .LVU435
	cmpl	$2147483647, %r12d
	je	.L650
	.loc 3 89 12 discriminator 2 view .LVU436
	addl	$1, %r12d
.LVL389:
.L639:
	.loc 3 69 19 view .LVU437
	movl	1600(%r13), %eax
	cmpl	$10, %eax
	ja	.L651
	.loc 3 69 15 discriminator 2 view .LVU438
	cmpl	%eax, %r12d
	jg	.L633
	.loc 3 87 11 view .LVU439
	leal	-1(%r12), %eax
	cmpl	$9, %eax
	ja	.L652
.LVL390:
.LBB1523:
	.loc 3 87 26 discriminator 2 view .LVU440
	movq	$0, (%rsp)
	movq	$0, 8(%rsp)
	movq	$0, 16(%rsp)
.LVL391:
	.loc 3 88 19 view .LVU441
	movslq	%r12d, %rbx
	leaq	-5(%rbx,%rbx,4), %rbp
	salq	$5, %rbp
	addq	%r13, %rbp
	leaq	32(%rsp), %rdi
	leaq	(%rbx,%rbx,4), %rax
	salq	$5, %rax
	leaq	-96(%r13,%rax), %rdx
	movq	%rbp, %rsi
.LEHB273:
	call	spatial__move@PLT
.LVL392:
.LEHE273:
	jmp	.L653
.L650:
	.loc 3 88 19 is_stmt 0 view .LVU442
.LBE1523:
	.loc 3 89 12 is_stmt 1 discriminator 1 view .LVU443
	movl	$89, %esi
	leaq	.LC69(%rip), %rdi
.LEHB274:
	call	__gnat_rcheck_CE_Overflow_Check@PLT
.LVL393:
.LEHE274:
.L647:
	.loc 3 89 12 is_stmt 0 discriminator 1 view .LVU444
	movq	%rax, %rbp
	cmpq	$1, %rdx
	je	.L641
	movq	%rax, %rbx
.LVL394:
.L642:
.LEHB275:
.LBB1524:
	.loc 3 87 0 is_stmt 1 discriminator 7 view .LVU445
	call	system__standard_library__abort_undefer_direct@PLT
.LVL395:
.LEHE275:
	jmp	.L644
.LVL396:
.L641:
	.loc 3 87 0 is_stmt 0 discriminator 7 view .LVU446
	movq	%rax, %rdi
	call	__gnat_begin_handler_v1@PLT
.LVL397:
	.loc 3 87 0 discriminator 7 view .LVU447
	movq	%rax, %r12
.LVL398:
	.loc 3 87 0 discriminator 7 view .LVU448
	leaq	96(%rsp), %rdi
	movq	%rbp, %rsi
.LEHB276:
	call	__gnat_set_exception_parameter@PLT
.LVL399:
.LBB1522:
	.loc 3 87 26 is_stmt 1 view .LVU449
	leaq	96(%rsp), %rdi
	call	__gnat_raise_from_controlled_operation@PLT
.LVL400:
.LEHE276:
.L648:
	.loc 3 87 26 is_stmt 0 view .LVU450
	movq	%rax, %rbx
.LVL401:
	.loc 3 87 26 view .LVU451
	movq	%rax, %rdx
	movq	%r12, %rsi
	movq	%rbp, %rdi
.LEHB277:
	call	__gnat_end_handler_v1@PLT
.LVL402:
.LEHE277:
	.loc 3 87 26 view .LVU452
	jmp	.L642
.LVL403:
.L646:
	.loc 3 87 26 view .LVU453
.LBE1522:
	.loc 3 87 0 is_stmt 1 discriminator 7 view .LVU454
	movq	%rax, %rbx
	jmp	.L642
.L645:
	.loc 3 87 0 is_stmt 0 discriminator 22 view .LVU455
	movq	%rax, %rbx
.L644:
	movq	%rsp, %r10
.LEHB278:
	call	main__univ__tick__L_2__B1147b___finalizer.33
.LVL404:
	movq	%rbx, %rdi
	call	_Unwind_Resume@PLT
.LVL405:
.L633:
	.loc 3 87 0 discriminator 22 view .LVU456
.LBE1524:
.LBE1519:
	.loc 3 91 8 is_stmt 1 view .LVU457
	addq	$736, %rsp
	.cfi_def_cfa_offset 48
.LEHE278:
	popq	%rbx
	.cfi_def_cfa_offset 40
	popq	%rbp
	.cfi_def_cfa_offset 32
	popq	%r12
	.cfi_def_cfa_offset 24
.LVL406:
	.loc 3 91 8 is_stmt 0 view .LVU458
	popq	%r13
	.cfi_def_cfa_offset 16
.LVL407:
	.loc 3 91 8 view .LVU459
	popq	%r14
	.cfi_def_cfa_offset 8
	ret
	.cfi_endproc
.LFE14:
	.section	.gcc_except_table.main__univ__tick.30,"a",@progbits
	.align 4
.LLSDA14:
	.byte	0xff
	.byte	0x9b
	.uleb128 .LLSDATT14-.LLSDATTD14
.LLSDATTD14:
	.byte	0x1
	.uleb128 .LLSDACSE14-.LLSDACSB14
.LLSDACSB14:
	.uleb128 .LEHB267-.LFB14
	.uleb128 .LEHE267-.LEHB267
	.uleb128 0
	.uleb128 0
	.uleb128 .LEHB268-.LFB14
	.uleb128 .LEHE268-.LEHB268
	.uleb128 .L645-.LFB14
	.uleb128 0
	.uleb128 .LEHB269-.LFB14
	.uleb128 .LEHE269-.LEHB269
	.uleb128 .L646-.LFB14
	.uleb128 0
	.uleb128 .LEHB270-.LFB14
	.uleb128 .LEHE270-.LEHB270
	.uleb128 .L647-.LFB14
	.uleb128 0x3
	.uleb128 .LEHB271-.LFB14
	.uleb128 .LEHE271-.LEHB271
	.uleb128 .L645-.LFB14
	.uleb128 0
	.uleb128 .LEHB272-.LFB14
	.uleb128 .LEHE272-.LEHB272
	.uleb128 0
	.uleb128 0
	.uleb128 .LEHB273-.LFB14
	.uleb128 .LEHE273-.LEHB273
	.uleb128 .L645-.LFB14
	.uleb128 0
	.uleb128 .LEHB274-.LFB14
	.uleb128 .LEHE274-.LEHB274
	.uleb128 0
	.uleb128 0
	.uleb128 .LEHB275-.LFB14
	.uleb128 .LEHE275-.LEHB275
	.uleb128 .L645-.LFB14
	.uleb128 0
	.uleb128 .LEHB276-.LFB14
	.uleb128 .LEHE276-.LEHB276
	.uleb128 .L648-.LFB14
	.uleb128 0
	.uleb128 .LEHB277-.LFB14
	.uleb128 .LEHE277-.LEHB277
	.uleb128 .L646-.LFB14
	.uleb128 0
	.uleb128 .LEHB278-.LFB14
	.uleb128 .LEHE278-.LEHB278
	.uleb128 0
	.uleb128 0
.LLSDACSE14:
	.byte	0
	.byte	0
	.byte	0x1
	.byte	0x7d
	.align 4
	.long	DW.ref.__gnat_others_value-.
.LLSDATT14:
	.section	.text.main__univ__tick.30
	.size	main__univ__tick.30, .-main__univ__tick.30
	.section	.text.main__univ__get_radius.36,"ax",@progbits
	.align 2
	.type	main__univ__get_radius.36, @function
main__univ__get_radius.36:
.LVL408:
.LFB76:
	.file 6 "/workspaces/src/src/universe.ads"
	.loc 6 124 4 is_stmt 1 view -0
	.cfi_startproc
	.loc 6 124 4 is_stmt 0 view .LVU461
	pushq	%rbx
	.cfi_def_cfa_offset 16
	.cfi_offset 3, -16
	.loc 6 126 28 is_stmt 1 view .LVU462
	leal	-1(%rdx), %eax
	cmpl	$9, %eax
	ja	.L657
	movq	%rdi, %rbx
	.loc 6 126 42 discriminator 2 view .LVU463
	movslq	%edx, %rdx
	.loc 6 126 42 is_stmt 0 discriminator 2 view .LVU464
	leaq	(%rdx,%rdx,4), %rax
	salq	$5, %rax
	addq	%rax, %rsi
.LVL409:
	.loc 6 126 42 discriminator 2 view .LVU465
	movdqu	-32(%rsi), %xmm0
	movups	%xmm0, (%rdi)
	movq	-16(%rsi), %rax
	movq	-8(%rsi), %rdx
.LVL410:
	.loc 6 126 42 discriminator 2 view .LVU466
	movq	%rax, 16(%rdi)
	movq	%rdx, 24(%rdi)
	movl	$1, %esi
	call	ada__numerics__big_numbers__big_reals__big_realDA@PLT
.LVL411:
	.loc 6 124 4 is_stmt 1 view .LVU467
	movq	%rbx, %rax
	popq	%rbx
	.cfi_remember_state
	.cfi_def_cfa_offset 8
.LVL412:
	.loc 6 124 4 is_stmt 0 view .LVU468
	ret
.LVL413:
.L657:
	.cfi_restore_state
	.loc 6 126 28 is_stmt 1 discriminator 1 view .LVU469
	movl	$126, %esi
.LVL414:
	.loc 6 126 28 is_stmt 0 discriminator 1 view .LVU470
	leaq	.LC66(%rip), %rdi
.LVL415:
	.loc 6 126 28 discriminator 1 view .LVU471
	call	__gnat_rcheck_CE_Index_Check@PLT
.LVL416:
	.loc 6 126 28 discriminator 1 view .LVU472
	.cfi_endproc
.LFE76:
	.size	main__univ__get_radius.36, .-main__univ__get_radius.36
	.section	.text.main__univ__get_position.47,"ax",@progbits
	.align 2
	.type	main__univ__get_position.47, @function
main__univ__get_position.47:
.LVL417:
.LFB74:
	.loc 6 116 4 is_stmt 1 view -0
	.cfi_startproc
	.loc 6 116 4 is_stmt 0 view .LVU474
	pushq	%rbx
	.cfi_def_cfa_offset 16
	.cfi_offset 3, -16
	.loc 6 118 36 is_stmt 1 view .LVU475
	leal	-1(%rdx), %eax
	cmpl	$9, %eax
	ja	.L661
	movq	%rdi, %rbx
	.loc 6 118 50 discriminator 2 view .LVU476
	movslq	%edx, %rdx
	.loc 6 118 50 is_stmt 0 discriminator 2 view .LVU477
	leaq	-5(%rdx,%rdx,4), %rax
	salq	$5, %rax
	addq	%rax, %rsi
.LVL418:
	.loc 6 118 50 discriminator 2 view .LVU478
	movdqu	(%rsi), %xmm0
	movups	%xmm0, (%rdi)
	movdqu	16(%rsi), %xmm1
	movups	%xmm1, 16(%rdi)
	movdqu	32(%rsi), %xmm2
	movups	%xmm2, 32(%rdi)
	movq	48(%rsi), %rax
	movq	56(%rsi), %rdx
.LVL419:
	.loc 6 118 50 discriminator 2 view .LVU479
	movq	%rax, 48(%rdi)
	movq	%rdx, 56(%rdi)
	movl	$1, %esi
	call	spatial__positionDA@PLT
.LVL420:
	.loc 6 116 4 is_stmt 1 view .LVU480
	movq	%rbx, %rax
	popq	%rbx
	.cfi_remember_state
	.cfi_def_cfa_offset 8
.LVL421:
	.loc 6 116 4 is_stmt 0 view .LVU481
	ret
.LVL422:
.L661:
	.cfi_restore_state
	.loc 6 118 36 is_stmt 1 discriminator 1 view .LVU482
	movl	$118, %esi
.LVL423:
	.loc 6 118 36 is_stmt 0 discriminator 1 view .LVU483
	leaq	.LC66(%rip), %rdi
.LVL424:
	.loc 6 118 36 discriminator 1 view .LVU484
	call	__gnat_rcheck_CE_Index_Check@PLT
.LVL425:
	.loc 6 118 36 discriminator 1 view .LVU485
	.cfi_endproc
.LFE74:
	.size	main__univ__get_position.47, .-main__univ__get_position.47
	.section	.text.main__univ__get_velocity.49,"ax",@progbits
	.align 2
	.type	main__univ__get_velocity.49, @function
main__univ__get_velocity.49:
.LVL426:
.LFB75:
	.loc 6 120 4 is_stmt 1 view -0
	.cfi_startproc
	.loc 6 120 4 is_stmt 0 view .LVU487
	pushq	%rbx
	.cfi_def_cfa_offset 16
	.cfi_offset 3, -16
	.loc 6 122 36 is_stmt 1 view .LVU488
	leal	-1(%rdx), %eax
	cmpl	$9, %eax
	ja	.L665
	movq	%rdi, %rbx
	.loc 6 122 50 discriminator 2 view .LVU489
	movslq	%edx, %rdx
	.loc 6 122 50 is_stmt 0 discriminator 2 view .LVU490
	leaq	(%rdx,%rdx,4), %rax
	salq	$5, %rax
	addq	%rax, %rsi
.LVL427:
	.loc 6 122 50 discriminator 2 view .LVU491
	leaq	-96(%rsi), %rax
	movq	-88(%rsi), %rdi
.LVL428:
	.loc 6 122 50 discriminator 2 view .LVU492
	movq	-96(%rsi), %rsi
	movq	%rsi, (%rbx)
	movq	%rdi, 8(%rbx)
	movdqu	16(%rax), %xmm0
	movups	%xmm0, 16(%rbx)
	movdqu	32(%rax), %xmm1
	movups	%xmm1, 32(%rbx)
	movq	56(%rax), %rdx
.LVL429:
	.loc 6 122 50 discriminator 2 view .LVU493
	movq	48(%rax), %rax
	movq	%rax, 48(%rbx)
	movq	%rdx, 56(%rbx)
	movl	$1, %esi
	movq	%rbx, %rdi
	call	spatial__velocityDA@PLT
.LVL430:
	.loc 6 120 4 is_stmt 1 view .LVU494
	movq	%rbx, %rax
	popq	%rbx
	.cfi_remember_state
	.cfi_def_cfa_offset 8
.LVL431:
	.loc 6 120 4 is_stmt 0 view .LVU495
	ret
.LVL432:
.L665:
	.cfi_restore_state
	.loc 6 122 36 is_stmt 1 discriminator 1 view .LVU496
	movl	$122, %esi
.LVL433:
	.loc 6 122 36 is_stmt 0 discriminator 1 view .LVU497
	leaq	.LC66(%rip), %rdi
.LVL434:
	.loc 6 122 36 discriminator 1 view .LVU498
	call	__gnat_rcheck_CE_Index_Check@PLT
.LVL435:
	.loc 6 122 36 discriminator 1 view .LVU499
	.cfi_endproc
.LFE75:
	.size	main__univ__get_velocity.49, .-main__univ__get_velocity.49
	.section	.text.main__univ__add_item.58,"ax",@progbits
	.align 2
	.type	main__univ__add_item.58, @function
main__univ__add_item.58:
.LVL436:
.LFB5:
	.loc 3 22 4 is_stmt 1 view -0
	.cfi_startproc
	.cfi_personality 0x9b,DW.ref.__gnat_personality_v0
	.cfi_lsda 0x1b,.LLSDA5
	.loc 3 22 4 is_stmt 0 view .LVU501
	pushq	%r14
	.cfi_def_cfa_offset 16
	.cfi_offset 14, -16
	pushq	%r13
	.cfi_def_cfa_offset 24
	.cfi_offset 13, -24
	pushq	%r12
	.cfi_def_cfa_offset 32
	.cfi_offset 12, -32
	pushq	%rbp
	.cfi_def_cfa_offset 40
	.cfi_offset 6, -40
	pushq	%rbx
	.cfi_def_cfa_offset 48
	.cfi_offset 3, -48
.LEHB279:
	subq	$832, %rsp
	.cfi_def_cfa_offset 880
.LEHE279:
	.loc 3 22 4 is_stmt 1 discriminator 1 view .LVU502
	leaq	880(%rsp), %rax
	movq	%rax, 24(%rsp)
	.loc 3 29 17 view .LVU503
	movl	1600(%rdi), %eax
	cmpl	$10, %eax
	ja	.L689
	movq	%rdi, %rbp
	movq	%rsi, %r12
	movq	%rdx, %rbx
	movq	%rcx, %r13
	.loc 3 29 29 discriminator 2 view .LVU504
	leal	1(%rax), %r14d
	.loc 3 29 8 discriminator 2 view .LVU505
	cmpl	$10, %r14d
	jg	.L690
.LVL437:
.LBB1525:
	.loc 3 29 34 discriminator 5 view .LVU506
	movq	$0, (%rsp)
	movq	$0, 8(%rsp)
	movq	$0, 16(%rsp)
.LVL438:
.LEHB280:
	.loc 3 30 9 view .LVU507
	call	*system__soft_links__abort_defer(%rip)
.LVL439:
.LEHE280:
	.loc 3 30 9 is_stmt 0 view .LVU508
	jmp	.L691
.LVL440:
.L689:
	.loc 3 30 9 view .LVU509
.LBE1525:
	.loc 3 29 17 is_stmt 1 discriminator 1 view .LVU510
	movl	$29, %esi
.LVL441:
	.loc 3 29 17 is_stmt 0 discriminator 1 view .LVU511
	leaq	.LC69(%rip), %rdi
.LVL442:
.LEHB281:
	.loc 3 29 17 discriminator 1 view .LVU512
	call	__gnat_rcheck_CE_Invalid_Data@PLT
.LVL443:
.L690:
	.loc 3 29 8 is_stmt 1 discriminator 4 view .LVU513
	movl	$29, %esi
.LVL444:
	.loc 3 29 8 is_stmt 0 discriminator 4 view .LVU514
	leaq	.LC69(%rip), %rdi
.LVL445:
	.loc 3 29 8 discriminator 4 view .LVU515
	call	__gnat_rcheck_CE_Index_Check@PLT
.LVL446:
.LEHE281:
.L691:
.LBB1528:
	.loc 3 30 9 is_stmt 1 discriminator 3 view .LVU516
	movdqu	(%r12), %xmm0
	movaps	%xmm0, 32(%rsp)
	movdqu	16(%r12), %xmm1
	movaps	%xmm1, 48(%rsp)
	movdqu	32(%r12), %xmm2
	movaps	%xmm2, 64(%rsp)
	movq	48(%r12), %rax
	movq	56(%r12), %rdx
	movq	%rax, 80(%rsp)
	movq	%rdx, 88(%rsp)
	leaq	32(%rsp), %rdi
	movl	$1, %esi
.LEHB282:
	call	spatial__positionDA@PLT
.LVL447:
.LEHE282:
.LEHB283:
	.loc 3 30 0 discriminator 6 view .LVU517
	call	system__standard_library__abort_undefer_direct@PLT
.LVL448:
.LEHE283:
.LEHB284:
	.loc 3 30 9 view .LVU518
	call	*system__soft_links__abort_defer(%rip)
.LVL449:
	.loc 3 30 9 is_stmt 0 discriminator 10 view .LVU519
	movdqu	(%rbx), %xmm3
	movaps	%xmm3, 96(%rsp)
	movdqu	16(%rbx), %xmm4
	movaps	%xmm4, 112(%rsp)
	movdqu	32(%rbx), %xmm5
	movaps	%xmm5, 128(%rsp)
	movq	48(%rbx), %rax
	movq	56(%rbx), %rdx
	movq	%rax, 144(%rsp)
	movq	%rdx, 152(%rsp)
	leaq	96(%rsp), %rdi
	movl	$1, %esi
	call	spatial__velocityDA@PLT
.LVL450:
.LEHE284:
.LEHB285:
	.loc 3 30 0 is_stmt 1 discriminator 13 view .LVU520
	call	system__standard_library__abort_undefer_direct@PLT
.LVL451:
.LEHE285:
.LEHB286:
	.loc 3 30 9 view .LVU521
	call	*system__soft_links__abort_defer(%rip)
.LVL452:
	.loc 3 30 9 is_stmt 0 discriminator 17 view .LVU522
	movdqu	0(%r13), %xmm6
	movaps	%xmm6, 160(%rsp)
	movq	16(%r13), %rax
	movq	24(%r13), %rdx
	movq	%rax, 176(%rsp)
	movq	%rdx, 184(%rsp)
	leaq	160(%rsp), %rdi
	movl	$1, %esi
	call	ada__numerics__big_numbers__big_reals__big_realDA@PLT
.LVL453:
.LEHE286:
.LEHB287:
	.loc 3 30 0 is_stmt 1 discriminator 20 view .LVU523
	call	system__standard_library__abort_undefer_direct@PLT
.LVL454:
	.loc 3 30 9 view .LVU524
	leaq	32(%rsp), %r12
.LVL455:
	.loc 3 30 9 is_stmt 0 view .LVU525
	movq	%rsp, %rdx
	leaq	main__univ__universe_itemFD.59(%rip), %rsi
	movq	%r12, %rdi
	call	system__finalization_primitives__attach_object_to_node@PLT
.LVL456:
.LEHE287:
.LEHB288:
	.loc 3 29 34 is_stmt 1 view .LVU526
	call	*system__soft_links__abort_defer(%rip)
.LVL457:
.LEHE288:
.LBB1526:
	.loc 3 29 34 is_stmt 0 discriminator 11 view .LVU527
	movslq	%r14d, %r14
	leaq	-5(%r14,%r14,4), %rax
	salq	$5, %rax
	addq	%rbp, %rax
	cmpq	%rax, %r12
	je	.L669
	.loc 3 29 8 is_stmt 1 discriminator 12 view .LVU528
	movq	%rax, %r12
	movl	$1, %esi
	movq	%rax, %rdi
.LEHB289:
	call	main__univ__universe_itemDF.15
.LVL458:
	.loc 3 29 34 discriminator 15 view .LVU529
	movdqa	32(%rsp), %xmm7
	movups	%xmm7, (%r12)
	movdqa	48(%rsp), %xmm7
	movups	%xmm7, 16(%r12)
	movdqa	64(%rsp), %xmm0
	movups	%xmm0, 32(%r12)
	movdqa	80(%rsp), %xmm1
	movups	%xmm1, 48(%r12)
	movdqa	96(%rsp), %xmm2
	movups	%xmm2, 64(%r12)
	movdqa	112(%rsp), %xmm3
	movups	%xmm3, 80(%r12)
	movdqa	128(%rsp), %xmm4
	movups	%xmm4, 96(%r12)
	movdqa	144(%rsp), %xmm5
	movups	%xmm5, 112(%r12)
	movdqa	160(%rsp), %xmm6
	movups	%xmm6, 128(%r12)
	movdqa	176(%rsp), %xmm7
	movups	%xmm7, 144(%r12)
	.loc 3 29 8 discriminator 16 view .LVU530
	movl	$1, %esi
	movq	%r12, %rdi
	call	main__univ__universe_itemDA.55
.LVL459:
.LEHE289:
.L669:
.LEHB290:
.LBE1526:
	.loc 3 29 0 discriminator 18 view .LVU531
	call	system__standard_library__abort_undefer_direct@PLT
.LVL460:
.LEHE290:
	.loc 3 29 0 is_stmt 0 view .LVU532
	movq	%rsp, %r10
.LEHB291:
	call	main__univ__add_item__B1038b___finalizer.60
.LVL461:
.LBE1528:
	.loc 3 33 24 is_stmt 1 view .LVU533
	movl	1600(%rbp), %eax
	cmpl	$10, %eax
	ja	.L692
	.loc 3 33 36 discriminator 2 view .LVU534
	addl	$1, %eax
	cmpl	$10, %eax
	jg	.L693
	.loc 3 33 20 discriminator 5 view .LVU535
	movl	%eax, 1600(%rbp)
	.loc 3 34 8 view .LVU536
	addq	$832, %rsp
	.cfi_remember_state
	.cfi_def_cfa_offset 48
	popq	%rbx
	.cfi_def_cfa_offset 40
.LVL462:
	.loc 3 34 8 is_stmt 0 view .LVU537
	popq	%rbp
	.cfi_def_cfa_offset 32
.LVL463:
	.loc 3 34 8 view .LVU538
	popq	%r12
	.cfi_def_cfa_offset 24
	popq	%r13
	.cfi_def_cfa_offset 16
.LVL464:
	.loc 3 34 8 view .LVU539
	popq	%r14
	.cfi_def_cfa_offset 8
	ret
.LVL465:
.L692:
	.cfi_restore_state
	.loc 3 33 24 is_stmt 1 discriminator 1 view .LVU540
	movl	$33, %esi
	leaq	.LC69(%rip), %rdi
	call	__gnat_rcheck_CE_Invalid_Data@PLT
.LVL466:
.L693:
	.loc 3 33 36 discriminator 4 view .LVU541
	movl	$33, %esi
	leaq	.LC69(%rip), %rdi
	call	__gnat_rcheck_CE_Range_Check@PLT
.LVL467:
.LEHE291:
.L681:
.LBB1529:
	.loc 3 30 0 discriminator 5 view .LVU542
	movq	%rax, %rbx
.LVL468:
.LEHB292:
	.loc 3 30 0 is_stmt 0 discriminator 5 view .LVU543
	call	system__standard_library__abort_undefer_direct@PLT
.LVL469:
	jmp	.L673
.LVL470:
.L682:
	.loc 3 30 0 discriminator 12 view .LVU544
	movq	%rax, %rbx
.LVL471:
	.loc 3 30 0 discriminator 12 view .LVU545
	call	system__standard_library__abort_undefer_direct@PLT
.LVL472:
	jmp	.L673
.LVL473:
.L683:
	.loc 3 30 0 discriminator 19 view .LVU546
	movq	%rax, %rbx
.LVL474:
	.loc 3 30 0 discriminator 19 view .LVU547
	call	system__standard_library__abort_undefer_direct@PLT
.LVL475:
	jmp	.L673
.LVL476:
.L685:
	.loc 3 30 0 discriminator 19 view .LVU548
	movq	%rax, %rbp
.LVL477:
	.loc 3 30 0 discriminator 19 view .LVU549
	cmpq	$1, %rdx
	je	.L677
	movq	%rax, %rbx
.LVL478:
.L678:
	.loc 3 29 0 is_stmt 1 discriminator 10 view .LVU550
	call	system__standard_library__abort_undefer_direct@PLT
.LVL479:
.LEHE292:
	jmp	.L673
.LVL480:
.L677:
	.loc 3 29 0 is_stmt 0 discriminator 10 view .LVU551
	movq	%rax, %rdi
	call	__gnat_begin_handler_v1@PLT
.LVL481:
	.loc 3 29 0 discriminator 10 view .LVU552
	movq	%rax, %r12
.LVL482:
	.loc 3 29 0 discriminator 10 view .LVU553
	leaq	192(%rsp), %rdi
	movq	%rbp, %rsi
.LEHB293:
	call	__gnat_set_exception_parameter@PLT
.LVL483:
.LBB1527:
	.loc 3 29 34 is_stmt 1 view .LVU554
	leaq	192(%rsp), %rdi
	call	__gnat_raise_from_controlled_operation@PLT
.LVL484:
.LEHE293:
.L686:
	.loc 3 29 34 is_stmt 0 view .LVU555
	movq	%rax, %rbx
.LVL485:
	.loc 3 29 34 view .LVU556
	movq	%rax, %rdx
	movq	%r12, %rsi
	movq	%rbp, %rdi
.LEHB294:
	call	__gnat_end_handler_v1@PLT
.LVL486:
.LEHE294:
	.loc 3 29 34 view .LVU557
	jmp	.L678
.LVL487:
.L684:
	.loc 3 29 34 view .LVU558
.LBE1527:
	.loc 3 29 0 is_stmt 1 discriminator 10 view .LVU559
	movq	%rax, %rbx
	jmp	.L678
.L680:
	.loc 3 29 0 is_stmt 0 discriminator 25 view .LVU560
	movq	%rax, %rbx
.L673:
	movq	%rsp, %r10
.LEHB295:
	call	main__univ__add_item__B1038b___finalizer.60
.LVL488:
	movq	%rbx, %rdi
	call	_Unwind_Resume@PLT
.LVL489:
.LEHE295:
.LBE1529:
	.cfi_endproc
.LFE5:
	.section	.gcc_except_table.main__univ__add_item.58,"a",@progbits
	.align 4
.LLSDA5:
	.byte	0xff
	.byte	0x9b
	.uleb128 .LLSDATT5-.LLSDATTD5
.LLSDATTD5:
	.byte	0x1
	.uleb128 .LLSDACSE5-.LLSDACSB5
.LLSDACSB5:
	.uleb128 .LEHB279-.LFB5
	.uleb128 .LEHE279-.LEHB279
	.uleb128 0
	.uleb128 0
	.uleb128 .LEHB280-.LFB5
	.uleb128 .LEHE280-.LEHB280
	.uleb128 .L681-.LFB5
	.uleb128 0
	.uleb128 .LEHB281-.LFB5
	.uleb128 .LEHE281-.LEHB281
	.uleb128 0
	.uleb128 0
	.uleb128 .LEHB282-.LFB5
	.uleb128 .LEHE282-.LEHB282
	.uleb128 .L681-.LFB5
	.uleb128 0
	.uleb128 .LEHB283-.LFB5
	.uleb128 .LEHE283-.LEHB283
	.uleb128 .L680-.LFB5
	.uleb128 0
	.uleb128 .LEHB284-.LFB5
	.uleb128 .LEHE284-.LEHB284
	.uleb128 .L682-.LFB5
	.uleb128 0
	.uleb128 .LEHB285-.LFB5
	.uleb128 .LEHE285-.LEHB285
	.uleb128 .L680-.LFB5
	.uleb128 0
	.uleb128 .LEHB286-.LFB5
	.uleb128 .LEHE286-.LEHB286
	.uleb128 .L683-.LFB5
	.uleb128 0
	.uleb128 .LEHB287-.LFB5
	.uleb128 .LEHE287-.LEHB287
	.uleb128 .L680-.LFB5
	.uleb128 0
	.uleb128 .LEHB288-.LFB5
	.uleb128 .LEHE288-.LEHB288
	.uleb128 .L684-.LFB5
	.uleb128 0
	.uleb128 .LEHB289-.LFB5
	.uleb128 .LEHE289-.LEHB289
	.uleb128 .L685-.LFB5
	.uleb128 0x3
	.uleb128 .LEHB290-.LFB5
	.uleb128 .LEHE290-.LEHB290
	.uleb128 .L680-.LFB5
	.uleb128 0
	.uleb128 .LEHB291-.LFB5
	.uleb128 .LEHE291-.LEHB291
	.uleb128 0
	.uleb128 0
	.uleb128 .LEHB292-.LFB5
	.uleb128 .LEHE292-.LEHB292
	.uleb128 .L680-.LFB5
	.uleb128 0
	.uleb128 .LEHB293-.LFB5
	.uleb128 .LEHE293-.LEHB293
	.uleb128 .L686-.LFB5
	.uleb128 0
	.uleb128 .LEHB294-.LFB5
	.uleb128 .LEHE294-.LEHB294
	.uleb128 .L684-.LFB5
	.uleb128 0
	.uleb128 .LEHB295-.LFB5
	.uleb128 .LEHE295-.LEHB295
	.uleb128 0
	.uleb128 0
.LLSDACSE5:
	.byte	0
	.byte	0
	.byte	0x1
	.byte	0x7d
	.align 4
	.long	DW.ref.__gnat_others_value-.
.LLSDATT5:
	.section	.text.main__univ__add_item.58
	.size	main__univ__add_item.58, .-main__univ__add_item.58
	.section	.text.main__reset_universe.51,"ax",@progbits
	.align 2
	.type	main__reset_universe.51, @function
main__reset_universe.51:
.LFB102:
	.file 7 "/workspaces/src/src/main.adb"
	.loc 7 303 4 is_stmt 1 view -0
	.cfi_startproc
	.cfi_personality 0x9b,DW.ref.__gnat_personality_v0
	.cfi_lsda 0x1b,.LLSDA102
	pushq	%r12
	.cfi_def_cfa_offset 16
	.cfi_offset 12, -16
	pushq	%rbp
	.cfi_def_cfa_offset 24
	.cfi_offset 6, -24
	pushq	%rbx
	.cfi_def_cfa_offset 32
	.cfi_offset 3, -32
.LEHB296:
	subq	$832, %rsp
	.cfi_def_cfa_offset 864
.LEHE296:
	movq	%r10, %rbx
	.loc 7 303 4 discriminator 1 view .LVU562
	leaq	864(%rsp), %rax
	movq	%rax, 720(%rsp)
.LVL490:
.LBB1530:
	.loc 7 307 18 view .LVU563
	movb	$1, 704(%rsp)
	movb	$0, 705(%rsp)
	movb	$0, 706(%rsp)
	movq	$0, 712(%rsp)
.LVL491:
	.loc 7 307 34 discriminator 3 view .LVU564
	movq	$0, 736(%rsp)
	movq	$0, 744(%rsp)
	movq	$0, 752(%rsp)
.LVL492:
.LBB1531:
	.loc 7 307 34 is_stmt 0 discriminator 6 view .LVU565
	leaq	768(%rsp), %rdi
	leaq	.LC79(%rip), %rsi
	leaq	.LC1(%rip), %rdx
.LEHB297:
	call	ada__numerics__big_numbers__big_integers__from_string@PLT
.LVL493:
.LBE1531:
	.loc 7 307 34 discriminator 9 view .LVU566
	leaq	704(%rsp), %rcx
	leaq	736(%rsp), %rdx
	leaq	768(%rsp), %rdi
	movq	ada__numerics__big_numbers__big_integers__big_integerFD@GOTPCREL(%rip), %rsi
	call	system__finalization_primitives__attach_object_to_master@PLT
.LVL494:
.LEHE297:
	.loc 7 307 21 is_stmt 1 discriminator 12 view .LVU567
	movq	$0, 784(%rsp)
	movq	$0, 792(%rsp)
	movq	$0, 800(%rsp)
.LVL495:
.LBB1532:
.LBB1533:
	.loc 4 60 4 discriminator 1 view .LVU568
	leaq	864(%rsp), %rax
.LVL496:
	.loc 4 60 4 is_stmt 0 discriminator 1 view .LVU569
	movq	%rax, 56(%rsp)
.LVL497:
	.loc 4 62 36 is_stmt 1 view .LVU570
	movq	$0, 32(%rsp)
	movq	$0, 40(%rsp)
	movq	$0, 48(%rsp)
.LVL498:
	.loc 4 62 50 discriminator 3 view .LVU571
	leaq	816(%rsp), %rdi
	movl	$1, %esi
.LEHB298:
	call	ada__numerics__big_numbers__big_integers__to_big_integer@PLT
.LVL499:
	.loc 4 62 50 is_stmt 0 discriminator 6 view .LVU572
	leaq	32(%rsp), %rdx
	leaq	816(%rsp), %rdi
	movq	ada__numerics__big_numbers__big_integers__big_integerFD@GOTPCREL(%rip), %rsi
	call	system__finalization_primitives__attach_object_to_node@PLT
.LVL500:
	.loc 4 62 36 is_stmt 1 discriminator 9 view .LVU573
	movq	%rsp, %rdi
	leaq	816(%rsp), %rdx
	leaq	768(%rsp), %rsi
.LVL501:
	.loc 4 62 36 is_stmt 0 discriminator 9 view .LVU574
	call	ada__numerics__big_numbers__big_reals__Odivide@PLT
.LVL502:
.LEHE298:
	.loc 4 62 0 is_stmt 1 view .LVU575
	leaq	32(%rsp), %r10
.LEHB299:
	call	ada__numerics__big_numbers__big_reals__to_big_real__B38s___finalizer.34
.LVL503:
	.loc 4 62 0 is_stmt 0 view .LVU576
.LBE1533:
.LBE1532:
	.loc 7 307 21 is_stmt 1 discriminator 18 view .LVU577
	leaq	704(%rsp), %rcx
	leaq	784(%rsp), %rdx
	movq	ada__numerics__big_numbers__big_reals__big_realFD@GOTPCREL(%rip), %rsi
	movq	%rsp, %rdi
	call	system__finalization_primitives__attach_object_to_master@PLT
.LVL504:
	jmp	.L712
.LVL505:
.L707:
.LBB1535:
.LBB1534:
	.loc 4 62 0 discriminator 11 view .LVU578
	movq	%rax, %rbx
	leaq	32(%rsp), %r10
	call	ada__numerics__big_numbers__big_reals__to_big_real__B38s___finalizer.34
.LVL506:
.LEHE299:
	jmp	.L697
.LVL507:
.L712:
.LEHB300:
	.loc 4 62 0 is_stmt 0 discriminator 11 view .LVU579
.LBE1534:
.LBE1535:
	.loc 7 307 18 is_stmt 1 discriminator 21 view .LVU580
	call	*system__soft_links__abort_defer(%rip)
.LVL508:
.LEHE300:
.LBB1536:
	.loc 7 307 18 is_stmt 0 discriminator 24 view .LVU581
	leaq	1744(%rbx), %rbp
	cmpq	%rsp, %rbp
	je	.L698
	.loc 7 307 7 is_stmt 1 discriminator 25 view .LVU582
	movl	$1, %esi
	movq	%rbp, %rdi
.LEHB301:
	call	ada__numerics__big_numbers__big_reals__big_realDF@PLT
.LVL509:
	.loc 7 307 18 discriminator 28 view .LVU583
	movdqa	(%rsp), %xmm0
	movups	%xmm0, 1744(%rbx)
	movdqa	16(%rsp), %xmm1
	movups	%xmm1, 1760(%rbx)
	.loc 7 307 7 discriminator 29 view .LVU584
	movl	$1, %esi
	movq	%rbp, %rdi
	call	ada__numerics__big_numbers__big_reals__big_realDA@PLT
.LVL510:
.LEHE301:
.L698:
.LEHB302:
.LBE1536:
	.loc 7 307 0 discriminator 31 view .LVU585
	call	system__standard_library__abort_undefer_direct@PLT
.LVL511:
	jmp	.L713
.L705:
	movq	%rax, %rbp
	cmpq	$1, %rdx
	je	.L700
	movq	%rax, %rbx
.L701:
	.loc 7 307 0 is_stmt 0 discriminator 23 view .LVU586
	call	system__standard_library__abort_undefer_direct@PLT
.LVL512:
.LEHE302:
	jmp	.L697
.L700:
.LVL513:
	.loc 7 307 0 discriminator 23 view .LVU587
	movq	%rax, %rdi
	call	__gnat_begin_handler_v1@PLT
.LVL514:
	.loc 7 307 0 discriminator 23 view .LVU588
	movq	%rax, %r12
.LVL515:
	.loc 7 307 0 discriminator 23 view .LVU589
	leaq	64(%rsp), %rdi
	movq	%rbp, %rsi
.LEHB303:
	call	__gnat_set_exception_parameter@PLT
.LVL516:
.LBB1537:
	.loc 7 307 18 is_stmt 1 view .LVU590
	leaq	64(%rsp), %rdi
	call	__gnat_raise_from_controlled_operation@PLT
.LVL517:
.LEHE303:
.L706:
	.loc 7 307 18 is_stmt 0 view .LVU591
	movq	%rax, %rbx
.LVL518:
	.loc 7 307 18 view .LVU592
	movq	%rax, %rdx
	movq	%r12, %rsi
	movq	%rbp, %rdi
.LEHB304:
	call	__gnat_end_handler_v1@PLT
.LVL519:
.LEHE304:
	.loc 7 307 18 view .LVU593
	jmp	.L701
.LVL520:
.L704:
	.loc 7 307 18 view .LVU594
.LBE1537:
	.loc 7 307 0 is_stmt 1 discriminator 23 view .LVU595
	movq	%rax, %rbx
	jmp	.L701
.L703:
	.loc 7 307 0 is_stmt 0 discriminator 38 view .LVU596
	movq	%rax, %rbx
.L697:
	leaq	704(%rsp), %r10
.LEHB305:
	call	main__reset_universe__B600b___finalizer.61
.LVL521:
	movq	%rbx, %rdi
	call	_Unwind_Resume@PLT
.LVL522:
.L713:
	.loc 7 307 0 view .LVU597
	leaq	704(%rsp), %r10
	call	main__reset_universe__B600b___finalizer.61
.LVL523:
.LBE1530:
	.loc 7 308 11 is_stmt 1 view .LVU598
	leaq	136(%rbx), %rbp
	movq	%rbp, %rdi
	call	main__univ__init.52
.LVL524:
	.loc 7 309 11 view .LVU599
	leaq	72(%rbx), %rcx
	leaq	1920(%rbx), %rdx
	leaq	1784(%rbx), %rsi
	movq	%rbp, %rdi
	call	main__univ__add_item.58
.LVL525:
	.loc 7 313 11 view .LVU600
	leaq	104(%rbx), %rcx
	leaq	1984(%rbx), %rdx
	leaq	1848(%rbx), %rsi
	movq	%rbp, %rdi
	call	main__univ__add_item.58
.LVL526:
	.loc 7 317 8 view .LVU601
	addq	$832, %rsp
	.cfi_def_cfa_offset 32
.LEHE305:
	popq	%rbx
	.cfi_def_cfa_offset 24
	popq	%rbp
	.cfi_def_cfa_offset 16
	popq	%r12
	.cfi_def_cfa_offset 8
	ret
	.cfi_endproc
.LFE102:
	.section	.gcc_except_table.main__reset_universe.51,"a",@progbits
	.align 4
.LLSDA102:
	.byte	0xff
	.byte	0x9b
	.uleb128 .LLSDATT102-.LLSDATTD102
.LLSDATTD102:
	.byte	0x1
	.uleb128 .LLSDACSE102-.LLSDACSB102
.LLSDACSB102:
	.uleb128 .LEHB296-.LFB102
	.uleb128 .LEHE296-.LEHB296
	.uleb128 0
	.uleb128 0
	.uleb128 .LEHB297-.LFB102
	.uleb128 .LEHE297-.LEHB297
	.uleb128 .L703-.LFB102
	.uleb128 0
	.uleb128 .LEHB298-.LFB102
	.uleb128 .LEHE298-.LEHB298
	.uleb128 .L707-.LFB102
	.uleb128 0
	.uleb128 .LEHB299-.LFB102
	.uleb128 .LEHE299-.LEHB299
	.uleb128 .L703-.LFB102
	.uleb128 0
	.uleb128 .LEHB300-.LFB102
	.uleb128 .LEHE300-.LEHB300
	.uleb128 .L704-.LFB102
	.uleb128 0
	.uleb128 .LEHB301-.LFB102
	.uleb128 .LEHE301-.LEHB301
	.uleb128 .L705-.LFB102
	.uleb128 0x3
	.uleb128 .LEHB302-.LFB102
	.uleb128 .LEHE302-.LEHB302
	.uleb128 .L703-.LFB102
	.uleb128 0
	.uleb128 .LEHB303-.LFB102
	.uleb128 .LEHE303-.LEHB303
	.uleb128 .L706-.LFB102
	.uleb128 0
	.uleb128 .LEHB304-.LFB102
	.uleb128 .LEHE304-.LEHB304
	.uleb128 .L704-.LFB102
	.uleb128 0
	.uleb128 .LEHB305-.LFB102
	.uleb128 .LEHE305-.LEHB305
	.uleb128 0
	.uleb128 0
.LLSDACSE102:
	.byte	0
	.byte	0
	.byte	0x1
	.byte	0x7d
	.align 4
	.long	DW.ref.__gnat_others_value-.
.LLSDATT102:
	.section	.text.main__reset_universe.51
	.size	main__reset_universe.51, .-main__reset_universe.51
	.section	.text.main__univ__reflect_velocity_x.41,"ax",@progbits
	.align 2
	.type	main__univ__reflect_velocity_x.41, @function
main__univ__reflect_velocity_x.41:
.LVL527:
.LFB7:
	.loc 3 36 4 view -0
	.cfi_startproc
	.cfi_personality 0x9b,DW.ref.__gnat_personality_v0
	.cfi_lsda 0x1b,.LLSDA7
	.loc 3 36 4 is_stmt 0 view .LVU603
	pushq	%r13
	.cfi_def_cfa_offset 16
	.cfi_offset 13, -16
	pushq	%r12
	.cfi_def_cfa_offset 24
	.cfi_offset 12, -24
	pushq	%rbp
	.cfi_def_cfa_offset 32
	.cfi_offset 6, -32
	pushq	%rbx
	.cfi_def_cfa_offset 40
	.cfi_offset 3, -40
.LEHB306:
	subq	$744, %rsp
	.cfi_def_cfa_offset 784
.LEHE306:
	.loc 3 36 4 is_stmt 1 discriminator 1 view .LVU604
	leaq	784(%rsp), %rax
	movq	%rax, 24(%rsp)
	.loc 3 39 8 view .LVU605
	leal	-1(%rsi), %eax
	cmpl	$9, %eax
	ja	.L729
	movq	%rdi, %rbp
.LVL528:
.LBB1538:
	.loc 3 39 27 discriminator 2 view .LVU606
	movq	$0, (%rsp)
	movq	$0, 8(%rsp)
	movq	$0, 16(%rsp)
.LVL529:
	.loc 3 39 37 discriminator 6 view .LVU607
	movslq	%esi, %rbx
	leaq	(%rbx,%rbx,4), %rax
	salq	$5, %rax
	leaq	-96(%rdi,%rax), %r12
	leaq	32(%rsp), %rdi
.LVL530:
	.loc 3 39 37 is_stmt 0 discriminator 6 view .LVU608
	movq	%r12, %rsi
.LVL531:
.LEHB307:
	.loc 3 39 37 discriminator 6 view .LVU609
	call	spatial__negate_vel_x@PLT
.LVL532:
.LEHE307:
	jmp	.L730
.LVL533:
.L729:
	.loc 3 39 37 discriminator 6 view .LVU610
.LBE1538:
	.loc 3 39 8 is_stmt 1 discriminator 1 view .LVU611
	movl	$39, %esi
.LVL534:
	.loc 3 39 8 is_stmt 0 discriminator 1 view .LVU612
	leaq	.LC69(%rip), %rdi
.LVL535:
.LEHB308:
	.loc 3 39 8 discriminator 1 view .LVU613
	call	__gnat_rcheck_CE_Index_Check@PLT
.LVL536:
.LEHE308:
.L730:
.LBB1541:
	.loc 3 39 37 is_stmt 1 discriminator 9 view .LVU614
	leaq	32(%rsp), %r13
	movq	%rsp, %rdx
	movq	spatial__velocityFD@GOTPCREL(%rip), %rsi
	movq	%r13, %rdi
.LEHB309:
	call	system__finalization_primitives__attach_object_to_node@PLT
.LVL537:
.LEHE309:
.LEHB310:
	.loc 3 39 27 discriminator 12 view .LVU615
	call	*system__soft_links__abort_defer(%rip)
.LVL538:
.LEHE310:
.LBB1539:
	.loc 3 39 27 is_stmt 0 discriminator 15 view .LVU616
	cmpq	%r12, %r13
	je	.L716
	.loc 3 39 22 is_stmt 1 discriminator 16 view .LVU617
	movl	$1, %esi
	movq	%r12, %rdi
.LEHB311:
	call	spatial__velocityDF@PLT
.LVL539:
	.loc 3 39 27 discriminator 19 view .LVU618
	leaq	(%rbx,%rbx,4), %rax
	salq	$5, %rax
	addq	%rbp, %rax
	movdqa	32(%rsp), %xmm0
	movups	%xmm0, -96(%rax)
	movdqa	48(%rsp), %xmm1
	movups	%xmm1, -80(%rax)
	movdqa	64(%rsp), %xmm2
	movups	%xmm2, -64(%rax)
	movdqa	80(%rsp), %xmm3
	movups	%xmm3, -48(%rax)
	.loc 3 39 22 discriminator 20 view .LVU619
	movl	$1, %esi
	movq	%r12, %rdi
	call	spatial__velocityDA@PLT
.LVL540:
.LEHE311:
.L716:
.LEHB312:
	.loc 3 39 22 is_stmt 0 discriminator 20 view .LVU620
.LBE1539:
	.loc 3 39 0 is_stmt 1 discriminator 22 view .LVU621
	call	system__standard_library__abort_undefer_direct@PLT
.LVL541:
	jmp	.L731
.L724:
	movq	%rax, %rbp
.LVL542:
	.loc 3 39 0 is_stmt 0 discriminator 22 view .LVU622
	cmpq	$1, %rdx
	je	.L718
	movq	%rax, %rbx
.L719:
	.loc 3 39 0 discriminator 14 view .LVU623
	call	system__standard_library__abort_undefer_direct@PLT
.LVL543:
.LEHE312:
	jmp	.L721
.L718:
.LVL544:
	.loc 3 39 0 discriminator 14 view .LVU624
	movq	%rax, %rdi
	call	__gnat_begin_handler_v1@PLT
.LVL545:
	.loc 3 39 0 discriminator 14 view .LVU625
	movq	%rax, %r12
.LVL546:
	.loc 3 39 0 discriminator 14 view .LVU626
	leaq	96(%rsp), %rdi
	movq	%rbp, %rsi
.LEHB313:
	call	__gnat_set_exception_parameter@PLT
.LVL547:
.LBB1540:
	.loc 3 39 27 is_stmt 1 view .LVU627
	leaq	96(%rsp), %rdi
	call	__gnat_raise_from_controlled_operation@PLT
.LVL548:
.LEHE313:
.L725:
	.loc 3 39 27 is_stmt 0 view .LVU628
	movq	%rax, %rbx
.LVL549:
	.loc 3 39 27 view .LVU629
	movq	%rax, %rdx
	movq	%r12, %rsi
	movq	%rbp, %rdi
.LEHB314:
	call	__gnat_end_handler_v1@PLT
.LVL550:
.LEHE314:
	.loc 3 39 27 view .LVU630
	jmp	.L719
.LVL551:
.L723:
	.loc 3 39 27 view .LVU631
.LBE1540:
	.loc 3 39 0 is_stmt 1 discriminator 14 view .LVU632
	movq	%rax, %rbx
	jmp	.L719
.L722:
	.loc 3 39 0 is_stmt 0 discriminator 29 view .LVU633
	movq	%rax, %rbx
.L721:
	movq	%rsp, %r10
.LEHB315:
	call	main__univ__reflect_velocity_x__B1056b___finalizer.43
.LVL552:
	movq	%rbx, %rdi
	call	_Unwind_Resume@PLT
.LVL553:
.L731:
	.loc 3 39 0 view .LVU634
	movq	%rsp, %r10
	call	main__univ__reflect_velocity_x__B1056b___finalizer.43
.LVL554:
.LBE1541:
	.loc 3 40 8 is_stmt 1 view .LVU635
	addq	$744, %rsp
	.cfi_def_cfa_offset 40
.LEHE315:
	popq	%rbx
	.cfi_def_cfa_offset 32
	popq	%rbp
	.cfi_def_cfa_offset 24
.LVL555:
	.loc 3 40 8 is_stmt 0 view .LVU636
	popq	%r12
	.cfi_def_cfa_offset 16
	popq	%r13
	.cfi_def_cfa_offset 8
	ret
	.cfi_endproc
.LFE7:
	.section	.gcc_except_table.main__univ__reflect_velocity_x.41,"a",@progbits
	.align 4
.LLSDA7:
	.byte	0xff
	.byte	0x9b
	.uleb128 .LLSDATT7-.LLSDATTD7
.LLSDATTD7:
	.byte	0x1
	.uleb128 .LLSDACSE7-.LLSDACSB7
.LLSDACSB7:
	.uleb128 .LEHB306-.LFB7
	.uleb128 .LEHE306-.LEHB306
	.uleb128 0
	.uleb128 0
	.uleb128 .LEHB307-.LFB7
	.uleb128 .LEHE307-.LEHB307
	.uleb128 .L722-.LFB7
	.uleb128 0
	.uleb128 .LEHB308-.LFB7
	.uleb128 .LEHE308-.LEHB308
	.uleb128 0
	.uleb128 0
	.uleb128 .LEHB309-.LFB7
	.uleb128 .LEHE309-.LEHB309
	.uleb128 .L722-.LFB7
	.uleb128 0
	.uleb128 .LEHB310-.LFB7
	.uleb128 .LEHE310-.LEHB310
	.uleb128 .L723-.LFB7
	.uleb128 0
	.uleb128 .LEHB311-.LFB7
	.uleb128 .LEHE311-.LEHB311
	.uleb128 .L724-.LFB7
	.uleb128 0x3
	.uleb128 .LEHB312-.LFB7
	.uleb128 .LEHE312-.LEHB312
	.uleb128 .L722-.LFB7
	.uleb128 0
	.uleb128 .LEHB313-.LFB7
	.uleb128 .LEHE313-.LEHB313
	.uleb128 .L725-.LFB7
	.uleb128 0
	.uleb128 .LEHB314-.LFB7
	.uleb128 .LEHE314-.LEHB314
	.uleb128 .L723-.LFB7
	.uleb128 0
	.uleb128 .LEHB315-.LFB7
	.uleb128 .LEHE315-.LEHB315
	.uleb128 0
	.uleb128 0
.LLSDACSE7:
	.byte	0
	.byte	0
	.byte	0x1
	.byte	0x7d
	.align 4
	.long	DW.ref.__gnat_others_value-.
.LLSDATT7:
	.section	.text.main__univ__reflect_velocity_x.41
	.size	main__univ__reflect_velocity_x.41, .-main__univ__reflect_velocity_x.41
	.section	.text.main__univ__reflect_velocity_y.44,"ax",@progbits
	.align 2
	.type	main__univ__reflect_velocity_y.44, @function
main__univ__reflect_velocity_y.44:
.LVL556:
.LFB9:
	.loc 3 42 4 is_stmt 1 view -0
	.cfi_startproc
	.cfi_personality 0x9b,DW.ref.__gnat_personality_v0
	.cfi_lsda 0x1b,.LLSDA9
	.loc 3 42 4 is_stmt 0 view .LVU638
	pushq	%r13
	.cfi_def_cfa_offset 16
	.cfi_offset 13, -16
	pushq	%r12
	.cfi_def_cfa_offset 24
	.cfi_offset 12, -24
	pushq	%rbp
	.cfi_def_cfa_offset 32
	.cfi_offset 6, -32
	pushq	%rbx
	.cfi_def_cfa_offset 40
	.cfi_offset 3, -40
.LEHB316:
	subq	$744, %rsp
	.cfi_def_cfa_offset 784
.LEHE316:
	.loc 3 42 4 is_stmt 1 discriminator 1 view .LVU639
	leaq	784(%rsp), %rax
	movq	%rax, 24(%rsp)
	.loc 3 45 8 view .LVU640
	leal	-1(%rsi), %eax
	cmpl	$9, %eax
	ja	.L747
	movq	%rdi, %rbp
.LVL557:
.LBB1542:
	.loc 3 45 27 discriminator 2 view .LVU641
	movq	$0, (%rsp)
	movq	$0, 8(%rsp)
	movq	$0, 16(%rsp)
.LVL558:
	.loc 3 45 37 discriminator 6 view .LVU642
	movslq	%esi, %rbx
	leaq	(%rbx,%rbx,4), %rax
	salq	$5, %rax
	leaq	-96(%rdi,%rax), %r12
	leaq	32(%rsp), %rdi
.LVL559:
	.loc 3 45 37 is_stmt 0 discriminator 6 view .LVU643
	movq	%r12, %rsi
.LVL560:
.LEHB317:
	.loc 3 45 37 discriminator 6 view .LVU644
	call	spatial__negate_vel_y@PLT
.LVL561:
.LEHE317:
	jmp	.L748
.LVL562:
.L747:
	.loc 3 45 37 discriminator 6 view .LVU645
.LBE1542:
	.loc 3 45 8 is_stmt 1 discriminator 1 view .LVU646
	movl	$45, %esi
.LVL563:
	.loc 3 45 8 is_stmt 0 discriminator 1 view .LVU647
	leaq	.LC69(%rip), %rdi
.LVL564:
.LEHB318:
	.loc 3 45 8 discriminator 1 view .LVU648
	call	__gnat_rcheck_CE_Index_Check@PLT
.LVL565:
.LEHE318:
.L748:
.LBB1545:
	.loc 3 45 37 is_stmt 1 discriminator 9 view .LVU649
	leaq	32(%rsp), %r13
	movq	%rsp, %rdx
	movq	spatial__velocityFD@GOTPCREL(%rip), %rsi
	movq	%r13, %rdi
.LEHB319:
	call	system__finalization_primitives__attach_object_to_node@PLT
.LVL566:
.LEHE319:
.LEHB320:
	.loc 3 45 27 discriminator 12 view .LVU650
	call	*system__soft_links__abort_defer(%rip)
.LVL567:
.LEHE320:
.LBB1543:
	.loc 3 45 27 is_stmt 0 discriminator 15 view .LVU651
	cmpq	%r12, %r13
	je	.L734
	.loc 3 45 22 is_stmt 1 discriminator 16 view .LVU652
	movl	$1, %esi
	movq	%r12, %rdi
.LEHB321:
	call	spatial__velocityDF@PLT
.LVL568:
	.loc 3 45 27 discriminator 19 view .LVU653
	leaq	(%rbx,%rbx,4), %rax
	salq	$5, %rax
	addq	%rbp, %rax
	movdqa	32(%rsp), %xmm0
	movups	%xmm0, -96(%rax)
	movdqa	48(%rsp), %xmm1
	movups	%xmm1, -80(%rax)
	movdqa	64(%rsp), %xmm2
	movups	%xmm2, -64(%rax)
	movdqa	80(%rsp), %xmm3
	movups	%xmm3, -48(%rax)
	.loc 3 45 22 discriminator 20 view .LVU654
	movl	$1, %esi
	movq	%r12, %rdi
	call	spatial__velocityDA@PLT
.LVL569:
.LEHE321:
.L734:
.LEHB322:
	.loc 3 45 22 is_stmt 0 discriminator 20 view .LVU655
.LBE1543:
	.loc 3 45 0 is_stmt 1 discriminator 22 view .LVU656
	call	system__standard_library__abort_undefer_direct@PLT
.LVL570:
	jmp	.L749
.L742:
	movq	%rax, %rbp
.LVL571:
	.loc 3 45 0 is_stmt 0 discriminator 22 view .LVU657
	cmpq	$1, %rdx
	je	.L736
	movq	%rax, %rbx
.L737:
	.loc 3 45 0 discriminator 14 view .LVU658
	call	system__standard_library__abort_undefer_direct@PLT
.LVL572:
.LEHE322:
	jmp	.L739
.L736:
.LVL573:
	.loc 3 45 0 discriminator 14 view .LVU659
	movq	%rax, %rdi
	call	__gnat_begin_handler_v1@PLT
.LVL574:
	.loc 3 45 0 discriminator 14 view .LVU660
	movq	%rax, %r12
.LVL575:
	.loc 3 45 0 discriminator 14 view .LVU661
	leaq	96(%rsp), %rdi
	movq	%rbp, %rsi
.LEHB323:
	call	__gnat_set_exception_parameter@PLT
.LVL576:
.LBB1544:
	.loc 3 45 27 is_stmt 1 view .LVU662
	leaq	96(%rsp), %rdi
	call	__gnat_raise_from_controlled_operation@PLT
.LVL577:
.LEHE323:
.L743:
	.loc 3 45 27 is_stmt 0 view .LVU663
	movq	%rax, %rbx
.LVL578:
	.loc 3 45 27 view .LVU664
	movq	%rax, %rdx
	movq	%r12, %rsi
	movq	%rbp, %rdi
.LEHB324:
	call	__gnat_end_handler_v1@PLT
.LVL579:
.LEHE324:
	.loc 3 45 27 view .LVU665
	jmp	.L737
.LVL580:
.L741:
	.loc 3 45 27 view .LVU666
.LBE1544:
	.loc 3 45 0 is_stmt 1 discriminator 14 view .LVU667
	movq	%rax, %rbx
	jmp	.L737
.L740:
	.loc 3 45 0 is_stmt 0 discriminator 29 view .LVU668
	movq	%rax, %rbx
.L739:
	movq	%rsp, %r10
.LEHB325:
	call	main__univ__reflect_velocity_y__B1068b___finalizer.46
.LVL581:
	movq	%rbx, %rdi
	call	_Unwind_Resume@PLT
.LVL582:
.L749:
	.loc 3 45 0 view .LVU669
	movq	%rsp, %r10
	call	main__univ__reflect_velocity_y__B1068b___finalizer.46
.LVL583:
.LBE1545:
	.loc 3 46 8 is_stmt 1 view .LVU670
	addq	$744, %rsp
	.cfi_def_cfa_offset 40
.LEHE325:
	popq	%rbx
	.cfi_def_cfa_offset 32
	popq	%rbp
	.cfi_def_cfa_offset 24
.LVL584:
	.loc 3 46 8 is_stmt 0 view .LVU671
	popq	%r12
	.cfi_def_cfa_offset 16
	popq	%r13
	.cfi_def_cfa_offset 8
	ret
	.cfi_endproc
.LFE9:
	.section	.gcc_except_table.main__univ__reflect_velocity_y.44,"a",@progbits
	.align 4
.LLSDA9:
	.byte	0xff
	.byte	0x9b
	.uleb128 .LLSDATT9-.LLSDATTD9
.LLSDATTD9:
	.byte	0x1
	.uleb128 .LLSDACSE9-.LLSDACSB9
.LLSDACSB9:
	.uleb128 .LEHB316-.LFB9
	.uleb128 .LEHE316-.LEHB316
	.uleb128 0
	.uleb128 0
	.uleb128 .LEHB317-.LFB9
	.uleb128 .LEHE317-.LEHB317
	.uleb128 .L740-.LFB9
	.uleb128 0
	.uleb128 .LEHB318-.LFB9
	.uleb128 .LEHE318-.LEHB318
	.uleb128 0
	.uleb128 0
	.uleb128 .LEHB319-.LFB9
	.uleb128 .LEHE319-.LEHB319
	.uleb128 .L740-.LFB9
	.uleb128 0
	.uleb128 .LEHB320-.LFB9
	.uleb128 .LEHE320-.LEHB320
	.uleb128 .L741-.LFB9
	.uleb128 0
	.uleb128 .LEHB321-.LFB9
	.uleb128 .LEHE321-.LEHB321
	.uleb128 .L742-.LFB9
	.uleb128 0x3
	.uleb128 .LEHB322-.LFB9
	.uleb128 .LEHE322-.LEHB322
	.uleb128 .L740-.LFB9
	.uleb128 0
	.uleb128 .LEHB323-.LFB9
	.uleb128 .LEHE323-.LEHB323
	.uleb128 .L743-.LFB9
	.uleb128 0
	.uleb128 .LEHB324-.LFB9
	.uleb128 .LEHE324-.LEHB324
	.uleb128 .L741-.LFB9
	.uleb128 0
	.uleb128 .LEHB325-.LFB9
	.uleb128 .LEHE325-.LEHB325
	.uleb128 0
	.uleb128 0
.LLSDACSE9:
	.byte	0
	.byte	0
	.byte	0x1
	.byte	0x7d
	.align 4
	.long	DW.ref.__gnat_others_value-.
.LLSDATT9:
	.section	.text.main__univ__reflect_velocity_y.44
	.size	main__univ__reflect_velocity_y.44, .-main__univ__reflect_velocity_y.44
	.section	.text.main__detect_bounces.35,"ax",@progbits
	.align 2
	.type	main__detect_bounces.35, @function
main__detect_bounces.35:
.LVL585:
.LFB94:
	.loc 7 247 4 is_stmt 1 view -0
	.cfi_startproc
	.cfi_personality 0x9b,DW.ref.__gnat_personality_v0
	.cfi_lsda 0x1b,.LLSDA94
	.loc 7 247 4 is_stmt 0 view .LVU673
	pushq	%r13
	.cfi_def_cfa_offset 16
	.cfi_offset 13, -16
	pushq	%r12
	.cfi_def_cfa_offset 24
	.cfi_offset 12, -24
	pushq	%rbp
	.cfi_def_cfa_offset 32
	.cfi_offset 6, -32
	pushq	%rbx
	.cfi_def_cfa_offset 40
	.cfi_offset 3, -40
.LEHB326:
	subq	$520, %rsp
	.cfi_def_cfa_offset 560
.LEHE326:
	movq	%rdi, %r13
	movq	%r10, %rbp
	.loc 7 247 4 is_stmt 1 discriminator 1 view .LVU674
	leaq	560(%rsp), %rax
	movq	%rax, 432(%rsp)
	.loc 7 250 7 view .LVU675
	movb	$0, 444(%rsp)
	movb	$0, 445(%rsp)
	movb	$0, 446(%rsp)
	movb	$0, 447(%rsp)
.LVL586:
.LBB1546:
	.loc 7 252 11 view .LVU676
	movl	$1, %ebx
	jmp	.L759
.LVL587:
.L774:
.LBB1547:
	.loc 7 254 13 view .LVU677
	leaq	224(%rsp), %rcx
	leaq	448(%rsp), %rdx
	leaq	160(%rsp), %rdi
	movq	spatial__positionFD@GOTPCREL(%rip), %rsi
.LEHB327:
	call	system__finalization_primitives__attach_object_to_master@PLT
.LVL588:
	.loc 7 256 13 view .LVU678
	movq	$0, 480(%rsp)
	movq	$0, 488(%rsp)
	movq	$0, 496(%rsp)
.LVL589:
	.loc 7 256 42 discriminator 2 view .LVU679
	movq	%rsp, %rdi
	movl	%ebx, %edx
	movq	%r13, %rsi
	call	main__univ__get_radius.36
.LVL590:
	.loc 7 256 13 discriminator 4 view .LVU680
	leaq	224(%rsp), %rcx
	leaq	480(%rsp), %rdx
	movq	%rsp, %rdi
	movq	ada__numerics__big_numbers__big_reals__big_realFD@GOTPCREL(%rip), %rsi
	call	system__finalization_primitives__attach_object_to_master@PLT
.LVL591:
.LEHE327:
.LBB1548:
	.loc 7 258 23 view .LVU681
	movq	$0, 336(%rsp)
	movq	$0, 344(%rsp)
	movq	$0, 352(%rsp)
.LVL592:
	.loc 7 258 34 discriminator 2 view .LVU682
	movq	$0, 360(%rsp)
	movq	$0, 368(%rsp)
	movq	$0, 376(%rsp)
.LVL593:
	.loc 7 259 30 view .LVU683
	movq	$0, 384(%rsp)
	movq	$0, 392(%rsp)
	movq	$0, 400(%rsp)
.LVL594:
	.loc 7 259 41 discriminator 3 view .LVU684
	movq	$0, 408(%rsp)
	movq	$0, 416(%rsp)
	movq	$0, 424(%rsp)
.LVL595:
.LBB1549:
.LBB1550:
	.loc 5 31 24 view .LVU685
	movdqa	160(%rsp), %xmm0
	movaps	%xmm0, 32(%rsp)
	movdqa	176(%rsp), %xmm1
	movaps	%xmm1, 48(%rsp)
	leaq	32(%rsp), %rdi
	movl	$1, %esi
.LEHB328:
	call	ada__numerics__big_numbers__big_reals__big_realDA@PLT
.LVL596:
	.loc 5 31 24 is_stmt 0 view .LVU686
.LBE1550:
.LBE1549:
	.loc 7 258 23 is_stmt 1 discriminator 5 view .LVU687
	leaq	336(%rsp), %rdx
	leaq	32(%rsp), %rdi
	movq	ada__numerics__big_numbers__big_reals__big_realFD@GOTPCREL(%rip), %rsi
	call	system__finalization_primitives__attach_object_to_node@PLT
.LVL597:
	.loc 7 258 34 discriminator 7 view .LVU688
	leaq	64(%rsp), %rdi
	movq	%rsp, %rdx
	leaq	32(%rsp), %rsi
	call	ada__numerics__big_numbers__big_reals__Oadd__2@PLT
.LVL598:
	.loc 7 258 34 is_stmt 0 discriminator 9 view .LVU689
	leaq	360(%rsp), %rdx
	leaq	64(%rsp), %rdi
	movq	ada__numerics__big_numbers__big_reals__big_realFD@GOTPCREL(%rip), %rsi
	call	system__finalization_primitives__attach_object_to_node@PLT
.LVL599:
	.loc 7 258 38 is_stmt 1 discriminator 11 view .LVU690
	leaq	2144(%rbp), %rsi
	leaq	64(%rsp), %rdi
	call	ada__numerics__big_numbers__big_reals__Ogt@PLT
.LVL600:
	movl	%eax, %r12d
	.loc 7 258 23 discriminator 13 view .LVU691
	leaq	336(%rsp), %rdi
	movq	ada__numerics__big_numbers__big_reals__big_realFD@GOTPCREL(%rip), %rsi
	call	system__finalization_primitives__finalize_object@PLT
.LVL601:
	.loc 7 258 34 discriminator 15 view .LVU692
	leaq	360(%rsp), %rdi
	movq	ada__numerics__big_numbers__big_reals__big_realFD@GOTPCREL(%rip), %rsi
	call	system__finalization_primitives__finalize_object@PLT
.LVL602:
	.loc 7 259 15 view .LVU693
	testb	%r12b, %r12b
	jne	.L752
.LVL603:
.LBB1551:
.LBB1552:
	.loc 5 31 24 view .LVU694
	movdqa	160(%rsp), %xmm4
	movaps	%xmm4, 96(%rsp)
	movdqa	176(%rsp), %xmm5
	movaps	%xmm5, 112(%rsp)
	leaq	96(%rsp), %rdi
	movl	$1, %esi
	call	ada__numerics__big_numbers__big_reals__big_realDA@PLT
.LVL604:
	.loc 5 31 24 is_stmt 0 view .LVU695
.LBE1552:
.LBE1551:
	.loc 7 259 30 is_stmt 1 discriminator 10 view .LVU696
	leaq	384(%rsp), %rdx
	leaq	96(%rsp), %rdi
	movq	ada__numerics__big_numbers__big_reals__big_realFD@GOTPCREL(%rip), %rsi
	call	system__finalization_primitives__attach_object_to_node@PLT
.LVL605:
	.loc 7 259 41 discriminator 13 view .LVU697
	leaq	128(%rsp), %rdi
	movq	%rsp, %rdx
	leaq	96(%rsp), %rsi
	call	ada__numerics__big_numbers__big_reals__Osubtract__2@PLT
.LVL606:
	.loc 7 259 41 is_stmt 0 discriminator 16 view .LVU698
	leaq	408(%rsp), %rdx
	leaq	128(%rsp), %rdi
	movq	ada__numerics__big_numbers__big_reals__big_realFD@GOTPCREL(%rip), %rsi
	call	system__finalization_primitives__attach_object_to_node@PLT
.LVL607:
	.loc 7 259 45 is_stmt 1 discriminator 19 view .LVU699
	leaq	2112(%rbp), %rsi
	leaq	128(%rsp), %rdi
	call	ada__numerics__big_numbers__big_reals__Olt@PLT
.LVL608:
	movl	%eax, %r12d
	.loc 7 259 45 is_stmt 0 discriminator 22 view .LVU700
	cmpb	$1, %al
	ja	.L768
	.loc 7 259 30 is_stmt 1 discriminator 24 view .LVU701
	leaq	384(%rsp), %rdi
	movq	ada__numerics__big_numbers__big_reals__big_realFD@GOTPCREL(%rip), %rsi
	call	system__finalization_primitives__finalize_object@PLT
.LVL609:
	jmp	.L769
.L768:
	.loc 7 259 45 discriminator 23 view .LVU702
	movl	$259, %esi
	leaq	.LC65(%rip), %rdi
	call	__gnat_rcheck_CE_Invalid_Data@PLT
.LVL610:
.LEHE328:
.L764:
	.loc 7 259 0 discriminator 31 view .LVU703
	movq	%rax, %rbx
.LVL611:
	.loc 7 259 0 is_stmt 0 discriminator 31 view .LVU704
	leaq	224(%rsp), %r10
.LEHB329:
	call	main__detect_bounces__B_2__B370b___finalizer.38
.LVL612:
.LEHE329:
	jmp	.L761
.LVL613:
.L769:
	.loc 7 259 41 is_stmt 1 discriminator 29 view .LVU705
	leaq	408(%rsp), %rdi
	movq	ada__numerics__big_numbers__big_reals__big_realFD@GOTPCREL(%rip), %rsi
.LEHB330:
	call	system__finalization_primitives__finalize_object@PLT
.LVL614:
.LEHE330:
	.loc 7 259 15 discriminator 32 view .LVU706
	testb	%r12b, %r12b
	je	.L754
.L752:
	.loc 7 259 0 discriminator 36 view .LVU707
	leaq	224(%rsp), %r10
.LEHB331:
	call	main__detect_bounces__B_2__B370b___finalizer.38
.LVL615:
.LBE1548:
	.loc 7 261 32 view .LVU708
	movslq	%ebx, %rax
	movb	$1, 442(%rsp,%rax,2)
	jmp	.L755
.L754:
.LBB1553:
	.loc 7 259 0 discriminator 36 view .LVU709
	leaq	224(%rsp), %r10
	call	main__detect_bounces__B_2__B370b___finalizer.38
.LVL616:
.LEHE331:
.L755:
	.loc 7 259 0 is_stmt 0 discriminator 36 view .LVU710
.LBE1553:
.LBB1554:
	.loc 7 263 23 is_stmt 1 view .LVU711
	movq	$0, 240(%rsp)
	movq	$0, 248(%rsp)
	movq	$0, 256(%rsp)
.LVL617:
	.loc 7 263 34 discriminator 2 view .LVU712
	movq	$0, 264(%rsp)
	movq	$0, 272(%rsp)
	movq	$0, 280(%rsp)
.LVL618:
	.loc 7 264 30 view .LVU713
	movq	$0, 288(%rsp)
	movq	$0, 296(%rsp)
	movq	$0, 304(%rsp)
.LVL619:
	.loc 7 264 41 discriminator 3 view .LVU714
	movq	$0, 312(%rsp)
	movq	$0, 320(%rsp)
	movq	$0, 328(%rsp)
.LVL620:
.LBB1555:
.LBB1556:
	.loc 5 34 24 view .LVU715
	movdqa	192(%rsp), %xmm2
	movaps	%xmm2, 32(%rsp)
	movdqa	208(%rsp), %xmm3
	movaps	%xmm3, 48(%rsp)
	leaq	32(%rsp), %rdi
	movl	$1, %esi
.LEHB332:
	call	ada__numerics__big_numbers__big_reals__big_realDA@PLT
.LVL621:
	.loc 5 34 24 is_stmt 0 view .LVU716
.LBE1556:
.LBE1555:
	.loc 7 263 23 is_stmt 1 discriminator 5 view .LVU717
	leaq	240(%rsp), %rdx
	leaq	32(%rsp), %rdi
	movq	ada__numerics__big_numbers__big_reals__big_realFD@GOTPCREL(%rip), %rsi
	call	system__finalization_primitives__attach_object_to_node@PLT
.LVL622:
	.loc 7 263 34 discriminator 7 view .LVU718
	leaq	64(%rsp), %rdi
	movq	%rsp, %rdx
	leaq	32(%rsp), %rsi
	call	ada__numerics__big_numbers__big_reals__Oadd__2@PLT
.LVL623:
	.loc 7 263 34 is_stmt 0 discriminator 9 view .LVU719
	leaq	264(%rsp), %rdx
	leaq	64(%rsp), %rdi
	movq	ada__numerics__big_numbers__big_reals__big_realFD@GOTPCREL(%rip), %rsi
	call	system__finalization_primitives__attach_object_to_node@PLT
.LVL624:
	.loc 7 263 38 is_stmt 1 discriminator 11 view .LVU720
	leaq	2080(%rbp), %rsi
	leaq	64(%rsp), %rdi
	call	ada__numerics__big_numbers__big_reals__Ogt@PLT
.LVL625:
	movl	%eax, %r12d
	.loc 7 263 23 discriminator 13 view .LVU721
	leaq	240(%rsp), %rdi
	movq	ada__numerics__big_numbers__big_reals__big_realFD@GOTPCREL(%rip), %rsi
	call	system__finalization_primitives__finalize_object@PLT
.LVL626:
	.loc 7 263 34 discriminator 15 view .LVU722
	leaq	264(%rsp), %rdi
	movq	ada__numerics__big_numbers__big_reals__big_realFD@GOTPCREL(%rip), %rsi
	call	system__finalization_primitives__finalize_object@PLT
.LVL627:
	.loc 7 264 15 view .LVU723
	testb	%r12b, %r12b
	jne	.L756
.LVL628:
.LBB1557:
.LBB1558:
	.loc 5 34 24 view .LVU724
	movdqa	192(%rsp), %xmm6
	movaps	%xmm6, 96(%rsp)
	movdqa	208(%rsp), %xmm7
	movaps	%xmm7, 112(%rsp)
	leaq	96(%rsp), %rdi
	movl	$1, %esi
	call	ada__numerics__big_numbers__big_reals__big_realDA@PLT
.LVL629:
	.loc 5 34 24 is_stmt 0 view .LVU725
.LBE1558:
.LBE1557:
	.loc 7 264 30 is_stmt 1 discriminator 10 view .LVU726
	leaq	288(%rsp), %rdx
	leaq	96(%rsp), %rdi
	movq	ada__numerics__big_numbers__big_reals__big_realFD@GOTPCREL(%rip), %rsi
	call	system__finalization_primitives__attach_object_to_node@PLT
.LVL630:
	.loc 7 264 41 discriminator 13 view .LVU727
	leaq	128(%rsp), %rdi
	movq	%rsp, %rdx
	leaq	96(%rsp), %rsi
	call	ada__numerics__big_numbers__big_reals__Osubtract__2@PLT
.LVL631:
	.loc 7 264 41 is_stmt 0 discriminator 16 view .LVU728
	leaq	312(%rsp), %rdx
	leaq	128(%rsp), %rdi
	movq	ada__numerics__big_numbers__big_reals__big_realFD@GOTPCREL(%rip), %rsi
	call	system__finalization_primitives__attach_object_to_node@PLT
.LVL632:
	.loc 7 264 45 is_stmt 1 discriminator 19 view .LVU729
	leaq	2048(%rbp), %rsi
	leaq	128(%rsp), %rdi
	call	ada__numerics__big_numbers__big_reals__Olt@PLT
.LVL633:
	movl	%eax, %r12d
	.loc 7 264 45 is_stmt 0 discriminator 22 view .LVU730
	cmpb	$1, %al
	ja	.L770
	.loc 7 264 30 is_stmt 1 discriminator 24 view .LVU731
	leaq	288(%rsp), %rdi
	movq	ada__numerics__big_numbers__big_reals__big_realFD@GOTPCREL(%rip), %rsi
	call	system__finalization_primitives__finalize_object@PLT
.LVL634:
	jmp	.L771
.L770:
	.loc 7 264 45 discriminator 23 view .LVU732
	movl	$264, %esi
	leaq	.LC65(%rip), %rdi
	call	__gnat_rcheck_CE_Invalid_Data@PLT
.LVL635:
.LEHE332:
.L765:
	.loc 7 264 0 discriminator 31 view .LVU733
	movq	%rax, %rbx
.LVL636:
	.loc 7 264 0 is_stmt 0 discriminator 31 view .LVU734
	leaq	224(%rsp), %r10
.LEHB333:
	call	main__detect_bounces__B_2__B403b___finalizer.39
.LVL637:
.LEHE333:
	jmp	.L761
.LVL638:
.L771:
	.loc 7 264 41 is_stmt 1 discriminator 29 view .LVU735
	leaq	312(%rsp), %rdi
	movq	ada__numerics__big_numbers__big_reals__big_realFD@GOTPCREL(%rip), %rsi
.LEHB334:
	call	system__finalization_primitives__finalize_object@PLT
.LVL639:
.LEHE334:
	.loc 7 264 15 discriminator 32 view .LVU736
	testb	%r12b, %r12b
	je	.L772
.L756:
	.loc 7 264 0 discriminator 36 view .LVU737
	leaq	224(%rsp), %r10
.LEHB335:
	call	main__detect_bounces__B_2__B403b___finalizer.39
.LVL640:
	jmp	.L773
.L772:
	leaq	224(%rsp), %r10
	call	main__detect_bounces__B_2__B403b___finalizer.39
.LVL641:
	jmp	.L758
.L773:
.LBE1554:
	.loc 7 266 32 view .LVU738
	movslq	%ebx, %rax
	movb	$1, 443(%rsp,%rax,2)
.LEHE335:
.L758:
	.loc 7 268 0 view .LVU739
	leaq	224(%rsp), %r10
.LEHB336:
	call	main__detect_bounces__B_2___finalizer.40
.LVL642:
.LEHE336:
.LBE1547:
	.loc 7 252 11 discriminator 2 view .LVU740
	addl	$1, %ebx
.LVL643:
.L759:
	.loc 7 252 11 is_stmt 0 discriminator 1 view .LVU741
	cmpl	$2, %ebx
	jg	.L751
.LVL644:
.LBB1559:
	.loc 7 253 10 is_stmt 1 view .LVU742
	movb	$1, 224(%rsp)
	movb	$0, 225(%rsp)
	movb	$0, 226(%rsp)
	movq	$0, 232(%rsp)
.LVL645:
	.loc 7 254 13 view .LVU743
	movq	$0, 448(%rsp)
	movq	$0, 456(%rsp)
	movq	$0, 464(%rsp)
.LVL646:
	.loc 7 255 19 view .LVU744
	leaq	160(%rsp), %rdi
	movl	%ebx, %edx
	movq	%r13, %rsi
.LEHB337:
	call	main__univ__get_position.47
.LVL647:
.LEHE337:
	jmp	.L774
.LVL648:
.L763:
	.loc 7 268 0 discriminator 4 view .LVU745
	movq	%rax, %rbx
.L761:
	leaq	224(%rsp), %r10
.LEHB338:
	call	main__detect_bounces__B_2___finalizer.40
.LVL649:
	movq	%rbx, %rdi
	call	_Unwind_Resume@PLT
.LVL650:
.L751:
	.loc 7 268 0 is_stmt 0 discriminator 4 view .LVU746
.LBE1559:
.LBE1546:
	.loc 7 270 7 is_stmt 1 view .LVU747
	movl	444(%rsp), %eax
	.loc 7 271 8 view .LVU748
	addq	$520, %rsp
	.cfi_def_cfa_offset 40
.LEHE338:
	popq	%rbx
	.cfi_def_cfa_offset 32
.LVL651:
	.loc 7 271 8 is_stmt 0 view .LVU749
	popq	%rbp
	.cfi_def_cfa_offset 24
	popq	%r12
	.cfi_def_cfa_offset 16
	popq	%r13
	.cfi_def_cfa_offset 8
.LVL652:
	.loc 7 271 8 view .LVU750
	ret
	.cfi_endproc
.LFE94:
	.section	.gcc_except_table.main__detect_bounces.35,"a",@progbits
.LLSDA94:
	.byte	0xff
	.byte	0xff
	.byte	0x1
	.uleb128 .LLSDACSE94-.LLSDACSB94
.LLSDACSB94:
	.uleb128 .LEHB326-.LFB94
	.uleb128 .LEHE326-.LEHB326
	.uleb128 0
	.uleb128 0
	.uleb128 .LEHB327-.LFB94
	.uleb128 .LEHE327-.LEHB327
	.uleb128 .L763-.LFB94
	.uleb128 0
	.uleb128 .LEHB328-.LFB94
	.uleb128 .LEHE328-.LEHB328
	.uleb128 .L764-.LFB94
	.uleb128 0
	.uleb128 .LEHB329-.LFB94
	.uleb128 .LEHE329-.LEHB329
	.uleb128 .L763-.LFB94
	.uleb128 0
	.uleb128 .LEHB330-.LFB94
	.uleb128 .LEHE330-.LEHB330
	.uleb128 .L764-.LFB94
	.uleb128 0
	.uleb128 .LEHB331-.LFB94
	.uleb128 .LEHE331-.LEHB331
	.uleb128 .L763-.LFB94
	.uleb128 0
	.uleb128 .LEHB332-.LFB94
	.uleb128 .LEHE332-.LEHB332
	.uleb128 .L765-.LFB94
	.uleb128 0
	.uleb128 .LEHB333-.LFB94
	.uleb128 .LEHE333-.LEHB333
	.uleb128 .L763-.LFB94
	.uleb128 0
	.uleb128 .LEHB334-.LFB94
	.uleb128 .LEHE334-.LEHB334
	.uleb128 .L765-.LFB94
	.uleb128 0
	.uleb128 .LEHB335-.LFB94
	.uleb128 .LEHE335-.LEHB335
	.uleb128 .L763-.LFB94
	.uleb128 0
	.uleb128 .LEHB336-.LFB94
	.uleb128 .LEHE336-.LEHB336
	.uleb128 0
	.uleb128 0
	.uleb128 .LEHB337-.LFB94
	.uleb128 .LEHE337-.LEHB337
	.uleb128 .L763-.LFB94
	.uleb128 0
	.uleb128 .LEHB338-.LFB94
	.uleb128 .LEHE338-.LEHB338
	.uleb128 0
	.uleb128 0
.LLSDACSE94:
	.section	.text.main__detect_bounces.35
	.size	main__detect_bounces.35, .-main__detect_bounces.35
	.section	.text.main__print_collision__B_4__B465b___finalizer.70,"ax",@progbits
	.align 2
	.type	main__print_collision__B_4__B465b___finalizer.70, @function
main__print_collision__B_4__B465b___finalizer.70:
.LFB99:
	.cfi_startproc
	.cfi_personality 0x9b,DW.ref.__gnat_personality_v0
	.cfi_lsda 0x1b,.LLSDA99
	pushq	%r15
	.cfi_def_cfa_offset 16
	.cfi_offset 15, -16
	pushq	%r14
	.cfi_def_cfa_offset 24
	.cfi_offset 14, -24
	pushq	%rbx
	.cfi_def_cfa_offset 32
	.cfi_offset 3, -32
	movq	%r10, %rbx
.LEHB339:
	call	ada__exceptions__triggered_by_abort@PLT
	movl	%eax, %r15d
	call	*system__soft_links__abort_defer(%rip)
.LEHE339:
	leaq	88(%rbx), %rdi
.LEHB340:
	call	system__finalization_primitives__finalize_master@PLT
.LEHE340:
	movl	$0, %r14d
.L779:
	leaq	64(%rbx), %rdi
.LEHB341:
	call	system__secondary_stack__ss_release@PLT
	call	*system__soft_links__abort_undefer(%rip)
	movl	%r15d, %eax
	xorl	$1, %eax
	testb	%al, %r14b
	jne	.L782
	popq	%rbx
	.cfi_remember_state
	.cfi_def_cfa_offset 24
	popq	%r14
	.cfi_def_cfa_offset 16
	popq	%r15
	.cfi_def_cfa_offset 8
	ret
.L782:
	.cfi_restore_state
	movl	$289, %esi
	leaq	.LC65(%rip), %rdi
	call	__gnat_rcheck_PE_Finalize_Raised_Exception@PLT
.L780:
	movq	%rax, %rdi
	cmpq	$1, %rdx
	je	.L778
	call	_Unwind_Resume@PLT
.L778:
	movq	%rax, %r14
	call	__gnat_begin_handler_v1@PLT
	movq	%rax, %rsi
	movl	$0, %edx
	movq	%r14, %rdi
	call	__gnat_end_handler_v1@PLT
.LEHE341:
	movl	$1, %r14d
	jmp	.L779
	.cfi_endproc
.LFE99:
	.section	.gcc_except_table.main__print_collision__B_4__B465b___finalizer.70,"a",@progbits
	.align 4
.LLSDA99:
	.byte	0xff
	.byte	0x9b
	.uleb128 .LLSDATT99-.LLSDATTD99
.LLSDATTD99:
	.byte	0x1
	.uleb128 .LLSDACSE99-.LLSDACSB99
.LLSDACSB99:
	.uleb128 .LEHB339-.LFB99
	.uleb128 .LEHE339-.LEHB339
	.uleb128 0
	.uleb128 0
	.uleb128 .LEHB340-.LFB99
	.uleb128 .LEHE340-.LEHB340
	.uleb128 .L780-.LFB99
	.uleb128 0x1
	.uleb128 .LEHB341-.LFB99
	.uleb128 .LEHE341-.LEHB341
	.uleb128 0
	.uleb128 0
.LLSDACSE99:
	.byte	0x1
	.byte	0
	.align 4
	.long	DW.ref.__gnat_others_value-.
.LLSDATT99:
	.section	.text.main__print_collision__B_4__B465b___finalizer.70
	.size	main__print_collision__B_4__B465b___finalizer.70, .-main__print_collision__B_4__B465b___finalizer.70
	.section	.text.main__print_collision__B572b___finalizer.72,"ax",@progbits
	.align 2
	.type	main__print_collision__B572b___finalizer.72, @function
main__print_collision__B572b___finalizer.72:
.LFB101:
	.cfi_startproc
	.cfi_personality 0x9b,DW.ref.__gnat_personality_v0
	.cfi_lsda 0x1b,.LLSDA101
	pushq	%r15
	.cfi_def_cfa_offset 16
	.cfi_offset 15, -16
	pushq	%r14
	.cfi_def_cfa_offset 24
	.cfi_offset 14, -24
	pushq	%rbx
	.cfi_def_cfa_offset 32
	.cfi_offset 3, -32
	movq	%r10, %rbx
.LEHB342:
	call	ada__exceptions__triggered_by_abort@PLT
	movl	%eax, %r15d
	call	*system__soft_links__abort_defer(%rip)
.LEHE342:
	leaq	24(%rbx), %rdi
	movq	ada__numerics__big_numbers__big_reals__big_realFD@GOTPCREL(%rip), %rsi
.LEHB343:
	call	system__finalization_primitives__finalize_object@PLT
.LEHE343:
	movl	$0, %r14d
.L787:
	movq	%rbx, %rdi
.LEHB344:
	call	system__secondary_stack__ss_release@PLT
	call	*system__soft_links__abort_undefer(%rip)
	movl	%r15d, %eax
	xorl	$1, %eax
	testb	%al, %r14b
	jne	.L790
	popq	%rbx
	.cfi_remember_state
	.cfi_def_cfa_offset 24
	popq	%r14
	.cfi_def_cfa_offset 16
	popq	%r15
	.cfi_def_cfa_offset 8
	ret
.L790:
	.cfi_restore_state
	movl	$299, %esi
	leaq	.LC65(%rip), %rdi
	call	__gnat_rcheck_PE_Finalize_Raised_Exception@PLT
.L788:
	movq	%rax, %rdi
	cmpq	$1, %rdx
	je	.L786
	call	_Unwind_Resume@PLT
.L786:
	movq	%rax, %r14
	call	__gnat_begin_handler_v1@PLT
	movq	%rax, %rsi
	movl	$0, %edx
	movq	%r14, %rdi
	call	__gnat_end_handler_v1@PLT
.LEHE344:
	movl	$1, %r14d
	jmp	.L787
	.cfi_endproc
.LFE101:
	.section	.gcc_except_table.main__print_collision__B572b___finalizer.72,"a",@progbits
	.align 4
.LLSDA101:
	.byte	0xff
	.byte	0x9b
	.uleb128 .LLSDATT101-.LLSDATTD101
.LLSDATTD101:
	.byte	0x1
	.uleb128 .LLSDACSE101-.LLSDACSB101
.LLSDACSB101:
	.uleb128 .LEHB342-.LFB101
	.uleb128 .LEHE342-.LEHB342
	.uleb128 0
	.uleb128 0
	.uleb128 .LEHB343-.LFB101
	.uleb128 .LEHE343-.LEHB343
	.uleb128 .L788-.LFB101
	.uleb128 0x1
	.uleb128 .LEHB344-.LFB101
	.uleb128 .LEHE344-.LEHB344
	.uleb128 0
	.uleb128 0
.LLSDACSE101:
	.byte	0x1
	.byte	0
	.align 4
	.long	DW.ref.__gnat_others_value-.
.LLSDATT101:
	.section	.text.main__print_collision__B572b___finalizer.72
	.size	main__print_collision__B572b___finalizer.72, .-main__print_collision__B572b___finalizer.72
	.section	.rodata
	.align 8
.LC6:
	.long	1
	.long	11
	.section	.text.main__print_collision.69,"ax",@progbits
	.align 2
	.type	main__print_collision.69, @function
main__print_collision.69:
.LVL653:
.LFB98:
	.loc 7 275 4 is_stmt 1 view -0
	.cfi_startproc
	.cfi_personality 0x9b,DW.ref.__gnat_personality_v0
	.cfi_lsda 0x1b,.LLSDA98
	.loc 7 275 4 is_stmt 0 view .LVU752
	pushq	%r15
	.cfi_def_cfa_offset 16
	.cfi_offset 15, -16
	pushq	%r14
	.cfi_def_cfa_offset 24
	.cfi_offset 14, -24
	pushq	%r13
	.cfi_def_cfa_offset 32
	.cfi_offset 13, -32
	pushq	%r12
	.cfi_def_cfa_offset 40
	.cfi_offset 12, -40
	pushq	%rbp
	.cfi_def_cfa_offset 48
	.cfi_offset 6, -48
	pushq	%rbx
	.cfi_def_cfa_offset 56
	.cfi_offset 3, -56
.LEHB345:
	subq	$696, %rsp
	.cfi_def_cfa_offset 752
	movq	%r10, 56(%rsp)
	.loc 7 275 4 is_stmt 1 discriminator 1 view .LVU753
	leaq	752(%rsp), %rax
	movq	%rax, 392(%rsp)
.LBB1564:
	.loc 7 281 19 view .LVU754
	leaq	432(%rsp), %rbp
	movq	%rbp, %rsi
	leaq	.LC6(%rip), %rdx
	call	system__img_int__impl__image_integer@PLT
.LVL654:
	.loc 7 281 10 discriminator 2 view .LVU755
	testl	%eax, %eax
	movl	$0, %edx
	cmovs	%edx, %eax
	leal	42(%rax), %ebx
	movabsq	$8028074707392425795, %rax
	movabsq	$8007519350346424430, %rdx
	movq	%rax, 224(%rsp)
	movq	%rdx, 232(%rsp)
	movabsq	$8387498148011271011, %rax
	movabsq	$7164793178441151077, %rdx
	movq	%rax, 240(%rsp)
	movq	%rdx, 248(%rsp)
	movabsq	$2334381307929256480, %rax
	movabsq	$7308604914259752033, %rdx
	movq	%rax, 250(%rsp)
	movq	%rdx, 258(%rsp)
	leaq	266(%rsp), %rdi
	movl	$42, %edx
	cmpl	%edx, %ebx
	cmovge	%ebx, %edx
	movslq	%edx, %rdx
	subq	$42, %rdx
	movq	%rbp, %rsi
	call	memcpy@PLT
.LVL655:
	.loc 7 281 10 is_stmt 0 discriminator 3 view .LVU756
	cmpl	$53, %ebx
	jg	.L826
	.loc 7 279 18 is_stmt 1 view .LVU757
	leaq	224(%rsp), %rdx
	movl	$1, 408(%rsp)
	movl	%ebx, 412(%rsp)
	leaq	408(%rsp), %rax
	xchgq	%rdx, %rax
	movq	%rax, %rdi
	movq	%rdx, %rsi
	call	ada__text_io__put_line__2@PLT
.LVL656:
	.loc 7 279 18 is_stmt 0 view .LVU758
.LBE1564:
.LBB1565:
	.loc 7 282 11 is_stmt 1 view .LVU759
	movl	$1, %r15d
	jmp	.L802
.LVL657:
.L826:
	.loc 7 282 11 is_stmt 0 view .LVU760
.LBE1565:
.LBB1579:
	.loc 7 281 10 is_stmt 1 discriminator 4 view .LVU761
	movl	$281, %esi
	leaq	.LC65(%rip), %rdi
	call	__gnat_rcheck_CE_Range_Check@PLT
.LVL658:
.LEHE345:
.L832:
.LEHB346:
	.loc 7 281 10 is_stmt 0 discriminator 4 view .LVU762
.LBE1579:
.LBB1580:
.LBB1566:
.LBB1567:
.LBB1568:
	.loc 5 46 13 is_stmt 1 view .LVU763
	movq	24(%rax), %rdi
	movq	%rsi, 160(%rsp)
	movq	%rdi, 168(%rsp)
	movq	32(%rax), %rsi
	movq	40(%rax), %rdi
	movq	%rsi, 176(%rsp)
	movq	%rdi, 184(%rsp)
	movq	48(%rax), %rsi
	movq	56(%rax), %rdi
	movq	%rsi, 192(%rsp)
	movq	%rdi, 200(%rsp)
	movq	72(%rax), %rdx
	movq	64(%rax), %rax
	movq	%rax, 208(%rsp)
	movq	%rdx, 216(%rsp)
	leaq	160(%rsp), %rdi
	movl	$1, %esi
	call	vector__vectorDA@PLT
.LVL659:
	.loc 5 46 13 is_stmt 0 view .LVU764
.LBE1568:
.LBE1567:
	.loc 7 284 13 is_stmt 1 view .LVU765
	leaq	336(%rsp), %rcx
	leaq	448(%rsp), %rdx
	leaq	160(%rsp), %rdi
	movq	vector__vectorFD@GOTPCREL(%rip), %rsi
	call	system__finalization_primitives__attach_object_to_master@PLT
.LVL660:
	.loc 7 286 13 view .LVU766
	movq	$0, 480(%rsp)
	movq	$0, 488(%rsp)
	movq	$0, 496(%rsp)
.LVL661:
	.loc 7 286 13 is_stmt 0 discriminator 2 view .LVU767
	salq	$6, %rbx
	leaq	1712(%r14,%rbx), %rax
	movq	8(%rax), %rcx
	movq	16(%rax), %rbx
	movq	%rcx, 224(%rsp)
	movq	%rbx, 232(%rsp)
	movq	24(%rax), %rcx
	movq	32(%rax), %rbx
	movq	%rcx, 240(%rsp)
	movq	%rbx, 248(%rsp)
	movq	40(%rax), %rcx
	movq	48(%rax), %rbx
	movq	%rcx, 256(%rsp)
	movq	%rbx, 264(%rsp)
	movq	64(%rax), %rdx
	movq	56(%rax), %rax
	movq	%rax, 272(%rsp)
	movq	%rdx, 280(%rsp)
	.loc 7 286 13 discriminator 3 view .LVU768
	leaq	336(%rsp), %rcx
	leaq	480(%rsp), %rdx
	leaq	224(%rsp), %rdi
	movq	spatial__positionFD@GOTPCREL(%rip), %rsi
	call	system__finalization_primitives__attach_object_to_master@PLT
.LVL662:
	.loc 7 286 13 discriminator 5 view .LVU769
	leaq	224(%rsp), %rdi
	movl	$1, %esi
	call	spatial__positionDA@PLT
.LVL663:
.LEHE346:
.LBB1570:
	.loc 7 289 24 is_stmt 1 view .LVU770
	movb	$1, 376(%rsp)
	movb	$0, 377(%rsp)
	movb	$0, 378(%rsp)
	movq	$0, 384(%rsp)
.LVL664:
	.loc 7 289 24 is_stmt 0 view .LVU771
	leaq	352(%rsp), %rdi
.LEHB347:
	call	system__secondary_stack__ss_mark@PLT
.LVL665:
	.loc 7 290 34 is_stmt 1 view .LVU772
	leaq	512(%rsp), %rax
	movq	8(%rsp), %rbx
	movq	%rax, (%rsp)
	movq	%rbx, 8(%rsp)
	movq	(%rsp), %rax
	leaq	.LC6(%rip), %rbx
	movq	%rax, (%rsp)
	movq	%rbx, 8(%rsp)
	movq	(%rsp), %rax
	movq	%rax, %rsi
	movq	%rbx, %rdx
	movl	%r15d, %edi
	call	system__img_int__impl__image_integer@PLT
.LVL666:
	.loc 7 290 34 is_stmt 0 view .LVU773
	movl	%eax, %r14d
.LVL667:
	.loc 7 292 36 is_stmt 1 view .LVU774
	movq	$0, 528(%rsp)
	movq	$0, 536(%rsp)
	movq	$0, 544(%rsp)
.LVL668:
.LBB1571:
.LBB1572:
	.loc 5 31 24 view .LVU775
	movdqa	224(%rsp), %xmm0
	movaps	%xmm0, 96(%rsp)
	movdqa	240(%rsp), %xmm1
	movaps	%xmm1, 112(%rsp)
	leaq	96(%rsp), %rdi
	movl	$1, %esi
	call	ada__numerics__big_numbers__big_reals__big_realDA@PLT
.LVL669:
	.loc 5 31 24 is_stmt 0 view .LVU776
.LBE1572:
.LBE1571:
	.loc 7 292 36 is_stmt 1 discriminator 4 view .LVU777
	leaq	376(%rsp), %rcx
	leaq	528(%rsp), %rdx
	leaq	96(%rsp), %rdi
	movq	ada__numerics__big_numbers__big_reals__big_realFD@GOTPCREL(%rip), %rsi
	call	system__finalization_primitives__attach_object_to_master@PLT
.LVL670:
	.loc 7 293 36 view .LVU778
	movq	$0, 560(%rsp)
	movq	$0, 568(%rsp)
	movq	$0, 576(%rsp)
.LVL671:
.LBB1573:
.LBB1574:
	.loc 5 34 24 view .LVU779
	movdqa	256(%rsp), %xmm2
	movaps	%xmm2, 128(%rsp)
	movdqa	272(%rsp), %xmm3
	movaps	%xmm3, 144(%rsp)
	leaq	128(%rsp), %rdi
	movl	$1, %esi
	call	ada__numerics__big_numbers__big_reals__big_realDA@PLT
.LVL672:
	.loc 5 34 24 is_stmt 0 view .LVU780
.LBE1574:
.LBE1573:
	.loc 7 293 36 is_stmt 1 discriminator 4 view .LVU781
	leaq	376(%rsp), %rcx
	leaq	560(%rsp), %rdx
	leaq	128(%rsp), %rdi
	movq	ada__numerics__big_numbers__big_reals__big_realFD@GOTPCREL(%rip), %rsi
	call	system__finalization_primitives__attach_object_to_master@PLT
.LVL673:
	.loc 7 292 18 view .LVU782
	leaq	96(%rsp), %rdi
	movl	$0, %ecx
	movl	$3, %edx
	movl	$2, %esi
	call	ada__numerics__big_numbers__big_reals__to_string@PLT
.LVL674:
	movq	%rdx, %rbp
	.loc 7 292 18 is_stmt 0 discriminator 7 view .LVU783
	movq	%rax, 88(%rsp)
	.loc 7 293 18 is_stmt 1 view .LVU784
	leaq	128(%rsp), %rdi
	movl	$0, %ecx
	movl	$3, %edx
	movl	$2, %esi
	call	ada__numerics__big_numbers__big_reals__to_string@PLT
.LVL675:
	movq	%rdx, %r12
	.loc 7 293 18 is_stmt 0 discriminator 7 view .LVU785
	movq	%rax, 80(%rsp)
	.loc 7 295 18 is_stmt 1 view .LVU786
	leaq	160(%rsp), %rdi
	movl	$0, %ecx
	movl	$3, %edx
	movl	$2, %esi
	call	ada__numerics__big_numbers__big_reals__to_string@PLT
.LVL676:
	movq	%rdx, %rbx
	.loc 7 295 18 is_stmt 0 discriminator 2 view .LVU787
	movq	%rax, 72(%rsp)
	.loc 7 296 18 is_stmt 1 view .LVU788
	leaq	192(%rsp), %rdi
	movl	$0, %ecx
	movl	$3, %edx
	movl	$2, %esi
	call	ada__numerics__big_numbers__big_reals__to_string@PLT
.LVL677:
	.loc 7 296 18 is_stmt 0 discriminator 2 view .LVU789
	movq	%rax, 64(%rsp)
	.loc 7 296 34 is_stmt 1 discriminator 2 view .LVU790
	testl	%r14d, %r14d
	movl	$0, %eax
	cmovs	%eax, %r14d
	leal	6(%r14), %eax
	movl	%eax, 40(%rsp)
	leal	12(%r14), %eax
	movl	%eax, 24(%rsp)
	movl	4(%rbp), %r13d
	movl	0(%rbp), %eax
	cmpl	%eax, %r13d
	jl	.L809
	.loc 7 296 34 is_stmt 0 discriminator 3 view .LVU791
	subl	%eax, %r13d
	addl	$1, %r13d
.L794:
	.loc 7 296 34 discriminator 6 view .LVU792
	movl	24(%rsp), %eax
	addl	%eax, %r13d
	leal	2(%r13), %eax
	movl	%eax, 28(%rsp)
	movl	4(%r12), %ebp
	movl	(%r12), %eax
	cmpl	%eax, %ebp
	jl	.L810
	.loc 7 296 34 discriminator 7 view .LVU793
	subl	%eax, %ebp
	addl	$1, %ebp
.L795:
	.loc 7 296 34 discriminator 10 view .LVU794
	movl	28(%rsp), %eax
	addl	%eax, %ebp
	leal	1(%rbp), %eax
	movl	%eax, 44(%rsp)
	leal	7(%rbp), %eax
	movl	%eax, 32(%rsp)
	movl	4(%rbx), %r12d
	movl	(%rbx), %eax
	cmpl	%eax, %r12d
	jl	.L811
	.loc 7 296 34 discriminator 11 view .LVU795
	subl	%eax, %r12d
	addl	$1, %r12d
.L796:
	.loc 7 296 34 discriminator 14 view .LVU796
	movl	32(%rsp), %eax
	addl	%eax, %r12d
	leal	2(%r12), %eax
	movl	%eax, 36(%rsp)
	movl	4(%rdx), %eax
	movl	(%rdx), %edx
	cmpl	%edx, %eax
	jl	.L812
	.loc 7 296 34 discriminator 15 view .LVU797
	subl	%edx, %eax
	addl	$1, %eax
.L797:
	.loc 7 296 34 discriminator 18 view .LVU798
	movl	36(%rsp), %ecx
	addl	%ecx, %eax
	movl	%eax, 48(%rsp)
	addl	$1, %eax
	movl	%eax, 52(%rsp)
.LVL678:
